
rps.elf:     file format elf32-littlenios2
rps.elf
architecture: nios2:r1, flags 0x00000112:
EXEC_P, HAS_SYMS, D_PAGED
start address 0x00000228

Program Header:
    LOAD off    0x00001000 vaddr 0x00000000 paddr 0x00000000 align 2**12
         filesz 0x00000020 memsz 0x00000020 flags r-x
    LOAD off    0x00001020 vaddr 0x00000020 paddr 0x00000020 align 2**12
         filesz 0x00017ffc memsz 0x00017ffc flags r-x
    LOAD off    0x0001901c vaddr 0x0001801c paddr 0x00019cac align 2**12
         filesz 0x00001c90 memsz 0x00001c90 flags rw-
    LOAD off    0x0000093c vaddr 0x0001b93c paddr 0x0001b93c align 2**12
         filesz 0x00000000 memsz 0x0000015c flags rw-

Sections:
Idx Name          Size      VMA       LMA       File off  Algn
  0 .entry        00000020  00000000  00000000  00001000  2**5
                  CONTENTS, ALLOC, LOAD, READONLY, CODE
  1 .exceptions   00000208  00000020  00000020  00001020  2**2
                  CONTENTS, ALLOC, LOAD, READONLY, CODE
  2 .text         00017538  00000228  00000228  00001228  2**2
                  CONTENTS, ALLOC, LOAD, READONLY, CODE
  3 .rodata       000008bc  00017760  00017760  00018760  2**2
                  CONTENTS, ALLOC, LOAD, READONLY, DATA
  4 .rwdata       00001c90  0001801c  00019cac  0001901c  2**2
                  CONTENTS, ALLOC, LOAD, DATA, SMALL_DATA
  5 .bss          0000015c  0001b93c  0001b93c  0001b93c  2**2
                  ALLOC, SMALL_DATA
  6 .SDRAM        00000000  0001ba98  0001ba98  0001acac  2**0
                  CONTENTS
  7 .comment      0000002d  00000000  00000000  0001acac  2**0
                  CONTENTS, READONLY
  8 .debug_aranges 00001410  00000000  00000000  0001ace0  2**3
                  CONTENTS, READONLY, DEBUGGING, OCTETS
  9 .debug_info   00035a75  00000000  00000000  0001c0f0  2**0
                  CONTENTS, READONLY, DEBUGGING, OCTETS
 10 .debug_abbrev 0000dac2  00000000  00000000  00051b65  2**0
                  CONTENTS, READONLY, DEBUGGING, OCTETS
 11 .debug_line   0001cd5a  00000000  00000000  0005f627  2**0
                  CONTENTS, READONLY, DEBUGGING, OCTETS
 12 .debug_frame  00003228  00000000  00000000  0007c384  2**2
                  CONTENTS, READONLY, DEBUGGING, OCTETS
 13 .debug_str    000051a4  00000000  00000000  0007f5ac  2**0
                  CONTENTS, READONLY, DEBUGGING, OCTETS
 14 .debug_loc    00023bb8  00000000  00000000  00084750  2**0
                  CONTENTS, READONLY, DEBUGGING, OCTETS
 15 .debug_alt_sim_info 00000010  00000000  00000000  000a8308  2**2
                  CONTENTS, READONLY, DEBUGGING, OCTETS
 16 .debug_ranges 00002b10  00000000  00000000  000a8318  2**3
                  CONTENTS, READONLY, DEBUGGING, OCTETS
 17 .thread_model 00000003  00000000  00000000  000aeea1  2**0
                  CONTENTS, READONLY
 18 .cpu          00000005  00000000  00000000  000aeea4  2**0
                  CONTENTS, READONLY
 19 .qsys         00000001  00000000  00000000  000aeea9  2**0
                  CONTENTS, READONLY
 20 .simulation_enabled 00000001  00000000  00000000  000aeeaa  2**0
                  CONTENTS, READONLY
 21 .sysid_hash   00000004  00000000  00000000  000aeeab  2**0
                  CONTENTS, READONLY
 22 .sysid_base   00000004  00000000  00000000  000aeeaf  2**0
                  CONTENTS, READONLY
 23 .sysid_time   00000004  00000000  00000000  000aeeb3  2**0
                  CONTENTS, READONLY
 24 .stderr_dev   00000009  00000000  00000000  000aeeb7  2**0
                  CONTENTS, READONLY
 25 .stdin_dev    00000009  00000000  00000000  000aeec0  2**0
                  CONTENTS, READONLY
 26 .stdout_dev   00000009  00000000  00000000  000aeec9  2**0
                  CONTENTS, READONLY
 27 .sopc_system_name 0000000f  00000000  00000000  000aeed2  2**0
                  CONTENTS, READONLY
 28 .quartus_project_dir 0000002c  00000000  00000000  000aeee1  2**0
                  CONTENTS, READONLY
 29 .sopcinfo     000a4f38  00000000  00000000  000aef0d  2**0
                  CONTENTS, READONLY
SYMBOL TABLE:
00000000 l    d  .entry	00000000 .entry
00000020 l    d  .exceptions	00000000 .exceptions
00000228 l    d  .text	00000000 .text
00017760 l    d  .rodata	00000000 .rodata
0001801c l    d  .rwdata	00000000 .rwdata
0001b93c l    d  .bss	00000000 .bss
0001ba98 l    d  .SDRAM	00000000 .SDRAM
00000000 l    d  .comment	00000000 .comment
00000000 l    d  .debug_aranges	00000000 .debug_aranges
00000000 l    d  .debug_info	00000000 .debug_info
00000000 l    d  .debug_abbrev	00000000 .debug_abbrev
00000000 l    d  .debug_line	00000000 .debug_line
00000000 l    d  .debug_frame	00000000 .debug_frame
00000000 l    d  .debug_str	00000000 .debug_str
00000000 l    d  .debug_loc	00000000 .debug_loc
00000000 l    d  .debug_alt_sim_info	00000000 .debug_alt_sim_info
00000000 l    d  .debug_ranges	00000000 .debug_ranges
00000000 l    df *ABS*	00000000 c:/school/Jaar-3/Periode-4/FPGA/FPGA-project/software/rps_bsp//obj/HAL/src/crt0.o
00000260 l       .text	00000000 alt_after_alt_main
00000000 l    df *ABS*	00000000 alt_irq_handler.c
00000000 l    df *ABS*	00000000 alt_instruction_exception_entry.c
00000000 l    df *ABS*	00000000 kiss_fft.c
00000264 l     F .text	00000154 kf_bfly2
000003b8 l     F .text	000004b4 kf_bfly4
0000086c l     F .text	000003a0 kf_bfly3
00000c0c l     F .text	00000768 kf_bfly5
00001374 l     F .text	000002d4 kf_bfly_generic
00001648 l     F .text	00000238 kf_work
00001880 l     F .text	00000144 kf_factor
00000000 l    df *ABS*	00000000 main.c
00000000 l    df *ABS*	00000000 libmfcc.c
00000000 l    df *ABS*	00000000 s_cos.c
00000000 l    df *ABS*	00000000 s_floor.c
00000000 l    df *ABS*	00000000 s_sin.c
00000000 l    df *ABS*	00000000 w_log.c
00000000 l    df *ABS*	00000000 w_pow.c
00000000 l    df *ABS*	00000000 w_sqrt.c
00000000 l    df *ABS*	00000000 e_log.c
00000000 l    df *ABS*	00000000 e_pow.c
00000000 l    df *ABS*	00000000 e_rem_pio2.c
000177a4 l     O .rodata	00000080 npio2_hw
00017824 l     O .rodata	00000108 two_over_pi
00000000 l    df *ABS*	00000000 e_sqrt.c
00000000 l    df *ABS*	00000000 k_cos.c
00000000 l    df *ABS*	00000000 k_rem_pio2.c
0001796c l     O .rodata	00000010 init_jk
0001792c l     O .rodata	00000040 PIo2
00000000 l    df *ABS*	00000000 k_sin.c
00000000 l    df *ABS*	00000000 math_err.c
00006b38 l     F .text	00000048 with_errno
00006b80 l     F .text	00000050 xflow
00000000 l    df *ABS*	00000000 s_scalbn.c
00000000 l    df *ABS*	00000000 lib2-divmod.c
00000000 l    df *ABS*	00000000 lib2-mul.c
00000000 l    df *ABS*	00000000 eqsf2.c
00000000 l    df *ABS*	00000000 gesf2.c
00000000 l    df *ABS*	00000000 floatsisf.c
00000000 l    df *ABS*	00000000 floatunsisf.c
00000000 l    df *ABS*	00000000 adddf3.c
00000000 l    df *ABS*	00000000 divdf3.c
00000000 l    df *ABS*	00000000 eqdf2.c
00000000 l    df *ABS*	00000000 gedf2.c
00000000 l    df *ABS*	00000000 ledf2.c
00000000 l    df *ABS*	00000000 muldf3.c
00000000 l    df *ABS*	00000000 subdf3.c
00000000 l    df *ABS*	00000000 unorddf2.c
00000000 l    df *ABS*	00000000 fixdfsi.c
00000000 l    df *ABS*	00000000 floatsidf.c
00000000 l    df *ABS*	00000000 floatunsidf.c
00000000 l    df *ABS*	00000000 extendsfdf2.c
00000000 l    df *ABS*	00000000 truncdfsf2.c
00000000 l    df *ABS*	00000000 libgcc2.c
00000000 l    df *ABS*	00000000 libgcc2.c
00000000 l    df *ABS*	00000000 errno.c
00000000 l    df *ABS*	00000000 impure.c
0001801c l     O .rwdata	00000424 impure_data
00000000 l    df *ABS*	00000000 malloc.c
00000000 l    df *ABS*	00000000 mallocr.c
00000000 l    df *ABS*	00000000 memcpy.c
00000000 l    df *ABS*	00000000 printf.c
00000000 l    df *ABS*	00000000 putchar.c
00000000 l    df *ABS*	00000000 sbrkr.c
00000000 l    df *ABS*	00000000 vfprintf.c
0000c8c4 l     F .text	000000c0 __sbprintf
00017ad0 l     O .rodata	00000010 blanks.1
00017ac0 l     O .rodata	00000010 zeroes.0
00000000 l    df *ABS*	00000000 wsetup.c
00000000 l    df *ABS*	00000000 dtoa.c
0000cae8 l     F .text	00000220 quorem
00000000 l    df *ABS*	00000000 fflush.c
00000000 l    df *ABS*	00000000 findfp.c
0000e75c l     F .text	00000008 __fp_lock
0000e770 l     F .text	00000008 __fp_unlock
0000e778 l     F .text	00000168 __sinit.part.0
00000000 l    df *ABS*	00000000 mallocr.c
00000000 l    df *ABS*	00000000 fwalk.c
00000000 l    df *ABS*	00000000 int_errno.c
00000000 l    df *ABS*	00000000 localeconv.c
00000000 l    df *ABS*	00000000 makebuf.c
00000000 l    df *ABS*	00000000 memchr.c
00000000 l    df *ABS*	00000000 memset.c
00000000 l    df *ABS*	00000000 mprec.c
00017b84 l     O .rodata	0000000c p05.0
00000000 l    df *ABS*	00000000 putc.c
00000000 l    df *ABS*	00000000 stdio.c
00000000 l    df *ABS*	00000000 strlen.c
00000000 l    df *ABS*	00000000 vfprintf.c
000109fc l     F .text	000000f4 __sprint_r.part.0
00011d84 l     F .text	000000c0 __sbprintf
00017cb8 l     O .rodata	00000010 blanks.1
00017ca8 l     O .rodata	00000010 zeroes.0
00000000 l    df *ABS*	00000000 wbuf.c
00000000 l    df *ABS*	00000000 writer.c
00000000 l    df *ABS*	00000000 closer.c
00000000 l    df *ABS*	00000000 assert.c
00000000 l    df *ABS*	00000000 mallocr.c
00000000 l    df *ABS*	00000000 fclose.c
0001222c l     F .text	000000c0 _fclose_r.part.0
00000000 l    df *ABS*	00000000 fiprintf.c
00000000 l    df *ABS*	00000000 fputwc.c
00000000 l    df *ABS*	00000000 fstatr.c
00000000 l    df *ABS*	00000000 fvwrite.c
00000000 l    df *ABS*	00000000 isattyr.c
00000000 l    df *ABS*	00000000 locale.c
00000000 l    df *ABS*	00000000 lseekr.c
00000000 l    df *ABS*	00000000 mbtowc_r.c
00000000 l    df *ABS*	00000000 memmove.c
00000000 l    df *ABS*	00000000 readr.c
00000000 l    df *ABS*	00000000 mallocr.c
00000000 l    df *ABS*	00000000 strcmp.c
00000000 l    df *ABS*	00000000 vfiprintfr_1.c
00000000 l    df *ABS*	00000000 wcrtomb.c
00000000 l    df *ABS*	00000000 wctomb_r.c
00000000 l    df *ABS*	00000000 abort.c
00000000 l    df *ABS*	00000000 ctype_.c
00000000 l    df *ABS*	00000000 signal.c
00000000 l    df *ABS*	00000000 signalr.c
00000000 l    df *ABS*	00000000 libgcc2.c
00000000 l    df *ABS*	00000000 libgcc2.c
00000000 l    df *ABS*	00000000 alt_close.c
0001471c l     F .text	0000003c alt_get_errno
00000000 l    df *ABS*	00000000 alt_dev.c
00014834 l     F .text	0000002c alt_dev_null_write
00000000 l    df *ABS*	00000000 alt_errno.c
00000000 l    df *ABS*	00000000 alt_exit.c
00000000 l    df *ABS*	00000000 alt_fstat.c
00014898 l     F .text	0000003c alt_get_errno
00000000 l    df *ABS*	00000000 alt_getpid.c
00000000 l    df *ABS*	00000000 alt_isatty.c
000149b0 l     F .text	0000003c alt_get_errno
00000000 l    df *ABS*	00000000 alt_kill.c
00014a9c l     F .text	0000003c alt_get_errno
00000000 l    df *ABS*	00000000 alt_load.c
00014c04 l     F .text	00000068 alt_load_section
00000000 l    df *ABS*	00000000 alt_lseek.c
00014cf0 l     F .text	0000003c alt_get_errno
00000000 l    df *ABS*	00000000 alt_main.c
00000000 l    df *ABS*	00000000 alt_malloc_lock.c
00000000 l    df *ABS*	00000000 alt_read.c
00014ed0 l     F .text	0000003c alt_get_errno
00000000 l    df *ABS*	00000000 alt_release_fd.c
00000000 l    df *ABS*	00000000 alt_sbrk.c
00019c9c l     O .rwdata	00000004 heap_end
00000000 l    df *ABS*	00000000 alt_write.c
0001513c l     F .text	0000003c alt_get_errno
00000000 l    df *ABS*	00000000 alt_sys_init.c
0001527c l     F .text	00000034 alt_dev_reg
00018b5c l     O .rwdata	00001060 JTAG_UART
00019bbc l     O .rwdata	00000030 AV_Config
00019bec l     O .rwdata	00000030 Audio_Subsystem_Audio
00019c1c l     O .rwdata	0000002c Char_LCD_16x2
00019c48 l     O .rwdata	0000002c Serial_Port
00000000 l    df *ABS*	00000000 altera_avalon_jtag_uart_fd.c
00000000 l    df *ABS*	00000000 altera_avalon_jtag_uart_init.c
000155a4 l     F .text	00000210 altera_avalon_jtag_uart_irq
000157b4 l     F .text	000000a0 altera_avalon_jtag_uart_timeout
00000000 l    df *ABS*	00000000 altera_avalon_jtag_uart_ioctl.c
00000000 l    df *ABS*	00000000 altera_avalon_jtag_uart_read.c
00000000 l    df *ABS*	00000000 altera_avalon_jtag_uart_write.c
00000000 l    df *ABS*	00000000 altera_avalon_timer_sc.c
00015df8 l     F .text	00000080 alt_avalon_timer_sc_irq
00000000 l    df *ABS*	00000000 altera_up_avalon_character_lcd.c
00000000 l    df *ABS*	00000000 altera_up_avalon_rs232.c
00000000 l    df *ABS*	00000000 alt_alarm_start.c
00000000 l    df *ABS*	00000000 alt_dcache_flush_all.c
00000000 l    df *ABS*	00000000 alt_dev_llist_insert.c
00016900 l     F .text	0000003c alt_get_errno
00000000 l    df *ABS*	00000000 alt_do_ctors.c
00000000 l    df *ABS*	00000000 alt_do_dtors.c
00000000 l    df *ABS*	00000000 alt_find_dev.c
00000000 l    df *ABS*	00000000 alt_icache_flush_all.c
00000000 l    df *ABS*	00000000 alt_io_redirect.c
00016b5c l     F .text	000000d4 alt_open_fd
00000000 l    df *ABS*	00000000 alt_irq_register.c
00000000 l    df *ABS*	00000000 alt_irq_vars.c
00000000 l    df *ABS*	00000000 alt_open.c
00016e2c l     F .text	0000003c alt_get_errno
00016e68 l     F .text	000000dc alt_file_locked
00000000 l    df *ABS*	00000000 alt_tick.c
00000000 l    df *ABS*	00000000 altera_nios2_gen2_irq.c
00000000 l    df *ABS*	00000000 alt_find_file.c
00000000 l    df *ABS*	00000000 alt_get_fd.c
00000000 l    df *ABS*	00000000 atexit.c
00000000 l    df *ABS*	00000000 exit.c
00000000 l    df *ABS*	00000000 memcmp.c
00000000 l    df *ABS*	00000000 __atexit.c
00000000 l    df *ABS*	00000000 __call_atexit.c
0001b96c g     O .bss	00000004 alt_instruction_exception_handler
0000a820 g     F .text	00000018 putchar
0001052c g     F .text	00000070 _mprec_log10
00010618 g     F .text	00000060 __any_on
00012b18 g     F .text	00000058 _isatty_r
00017b90 g     O .rodata	00000028 __mprec_tinytens
00014e0c g     F .text	0000007c alt_main
0001b998 g     O .bss	00000100 alt_irq
00012c64 g     F .text	00000064 _lseek_r
00003138 g     F .text	000000c4 log
000034b8 g     F .text	000000ac sqrt
00019cac g       *ABS*	00000000 __flash_rwdata_start
00015f68 g     F .text	00000040 alt_up_character_lcd_send_cmd
000086c0 g     F .text	00000080 .hidden __eqdf2
0001ba98 g       *ABS*	00000000 __alt_heap_start
00013ad4 g     F .text	00000060 _kill_r
0000a7e0 g     F .text	00000038 printf
000134a0 g     F .text	0000006c _wcrtomb_r
00013644 g     F .text	00000098 _signal_r
00010900 g     F .text	0000005c __sseek
0000eac0 g     F .text	00000010 __sinit
00011e44 g     F .text	00000148 __swbuf_r
00012b70 g     F .text	00000074 _setlocale_r
0000e8e0 g     F .text	00000078 __sfmoreglue
00014eac g     F .text	00000024 __malloc_unlock
00016620 g     F .text	00000090 alt_up_rs232_read_fd
00002cc4 g     F .text	0000011c GetCenterFrequency
00006bf4 g     F .text	0000004c .hidden __math_divzero
00012d18 g     F .text	0000012c memmove
0000eaac g     F .text	00000014 _cleanup
0000f488 g     F .text	000000a4 _Balloc
00008740 g     F .text	000000e8 .hidden __gtdf2
00017274 g     F .text	00000024 altera_nios2_gen2_irq_init
00009ea4 g     F .text	0000000c __errno
00015ef4 g     F .text	00000074 get_DDRAM_addr
00000000 g     F .entry	0000000c __reset
0000f060 g     F .text	00000008 __localeconv_l
00000020 g       *ABS*	00000000 __flash_exceptions_start
00012624 g     F .text	00000060 _fstat_r
0001b948 g     O .bss	00000004 errno
00002e90 g     F .text	000001e4 floor
00010878 g     F .text	00000008 __seofread
0001b954 g     O .bss	00000004 alt_argv
00021c74 g       *ABS*	00000000 _gp
00014990 g     F .text	00000020 getpid
000189dc g     O .rwdata	00000180 alt_fd_list
00004cf8 g     F .text	0000074c __ieee754_rem_pio2
0000a818 g     F .text	00000008 _putchar_r
00016aac g     F .text	00000090 alt_find_dev
0000a6b0 g     F .text	00000100 memcpy
00016118 g     F .text	00000050 alt_up_character_lcd_write_fd
00006c40 g     F .text	00000094 .hidden __math_invalid
0000e764 g     F .text	0000000c _cleanup_r
00009a9c g     F .text	000000b8 .hidden __floatsidf
00016c30 g     F .text	0000007c alt_io_redirect
00008828 g     F .text	000000e8 .hidden __ltdf2
00017760 g       *ABS*	00000000 __DTOR_END__
000165ac g     F .text	00000074 alt_up_rs232_read_data
00017458 g     F .text	00000098 alt_exception_cause_generated_bad_addr
00010488 g     F .text	000000a4 __ratio
00011d68 g     F .text	0000001c __vfiprintf_internal
000159b0 g     F .text	00000220 altera_avalon_jtag_uart_read
00009eb0 g     F .text	00000010 malloc
0000a7b0 g     F .text	00000030 _printf_r
0000708c g     F .text	00000064 .hidden __udivsi3
000149ec g     F .text	000000b0 isatty
000136dc g     F .text	000000c4 _raise_r
00012060 g     F .text	00000064 __assert_func
00017be0 g     O .rodata	000000c8 __mprec_tens
000056b0 g     F .text	000004ac __kernel_cos
0001b944 g     O .bss	00000004 __malloc_top_pad
00013b34 g     F .text	00000004 _getpid_r
0000f068 g     F .text	0000000c _localeconv_r
00012684 g     F .text	00000494 __sfvwrite_r
0000f8f8 g     F .text	000000b0 __i2b
000137a0 g     F .text	000000bc __sigtramp_r
0000a838 g     F .text	00000058 _sbrk_r
00012e44 g     F .text	00000064 _read_r
00019c94 g     O .rwdata	00000004 alt_max_fd
00016528 g     F .text	00000044 alt_up_rs232_check_parity
000122ec g     F .text	00000070 _fclose_r
0000e6d8 g     F .text	00000084 fflush
0001b940 g     O .bss	00000004 __malloc_max_sbrked_mem
00016cac g     F .text	00000180 alt_irq_register
00006870 g     F .text	000002c8 __kernel_sin
00009be4 g     F .text	000000fc .hidden __extendsfdf2
000074bc g     F .text	000008f0 .hidden __adddf3
00007174 g     F .text	00000070 .hidden __nesf2
0001021c g     F .text	00000108 __b2d
00014158 g     F .text	000005c4 .hidden __umoddi3
00014d2c g     F .text	000000e0 lseek
00019c74 g     O .rwdata	00000004 _global_impure_ptr
00012ea8 g     F .text	0000053c _realloc_r
0001ba98 g       *ABS*	00000000 __bss_end
00017148 g     F .text	0000012c alt_tick
00013b38 g     F .text	00000620 .hidden __udivdi3
00012588 g     F .text	00000024 _fputwc_r
00017bb8 g     O .rodata	00000028 __mprec_bigtens
0000f6ac g     F .text	00000138 __s2b
000135d0 g     F .text	00000018 abort
00009b54 g     F .text	00000090 .hidden __floatunsidf
0000ff3c g     F .text	00000058 __mcmp
0000eae0 g     F .text	00000014 __fp_lock_all
00002078 g     F .text	000000cc check_KEYs
000170a4 g     F .text	000000a4 alt_alarm_stop
0001b95c g     O .bss	00000004 alt_irq_active
000000fc g     F .exceptions	000000cc alt_irq_handler
000189b4 g     O .rwdata	00000028 alt_dev_null
00005b5c g     F .text	00000d14 __kernel_rem_pio2
000163b8 g     F .text	00000038 alt_up_character_lcd_cursor_blink_on
000168e0 g     F .text	00000020 alt_dcache_flush_all
0000f7e4 g     F .text	00000064 __hi0bits
00009a1c g     F .text	00000080 .hidden __fixdfsi
00019cac g       *ABS*	00000000 __ram_rwdata_end
00019c8c g     O .rwdata	00000008 alt_dev_list
00015178 g     F .text	00000104 write
00010678 g     F .text	000000cc _putc_r
000071e4 g     F .text	000000b8 .hidden __gtsf2
0001801c g       *ABS*	00000000 __ram_rodata_end
000148d4 g     F .text	000000bc fstat
000166b0 g     F .text	00000094 alt_up_rs232_write_fd
00014ad8 g     F .text	0000012c kill
00000000 g       *ABS*	00000000 __alt_mem_SDRAM
00008828 g     F .text	000000e8 .hidden __ledf2
00006be8 g     F .text	0000000c .hidden __math_oflow
0000fc6c g     F .text	00000148 __pow5mult
00010b08 g     F .text	00001260 ___vfiprintf_internal_r
000070f0 g     F .text	0000005c .hidden __umodsi3
0001ba98 g       *ABS*	00000000 end
000154f0 g     F .text	000000b4 altera_avalon_jtag_uart_init
000001c8 g     F .exceptions	00000060 alt_instruction_exception_entry
00006d38 g     F .text	000000a0 .hidden __math_check_oflow
00017760 g       *ABS*	00000000 __CTOR_LIST__
08000000 g       *ABS*	00000000 __alt_stack_pointer
00006bdc g     F .text	0000000c .hidden __math_may_uflow
00015e78 g     F .text	0000007c alt_avalon_timer_sc_init
00009e50 g     F .text	00000054 .hidden __clzsi2
00015bd0 g     F .text	00000228 altera_avalon_jtag_uart_write
00002de0 g     F .text	000000b0 cos
00001c00 g     F .text	000000d4 kiss_fft_stride
0000ead0 g     F .text	00000004 __sfp_lock_acquire
0000f2c8 g     F .text	000000d0 memchr
00001cd4 g     F .text	00000048 kiss_fft
0001601c g     F .text	00000080 alt_up_character_lcd_write
0000a890 g     F .text	00002018 ___vfprintf_internal_r
0000ec24 g     F .text	000002fc _free_r
00017e1c g     O .rodata	00000180 _ctype_b
00012be4 g     F .text	0000000c __locale_mb_cur_max
00017640 g     F .text	00000120 __call_exitprocs
00019c7c g     O .rwdata	00000004 __malloc_sbrk_base
00000228 g     F .text	0000003c _start
0001b960 g     O .bss	00000004 _alt_tick_rate
00003074 g     F .text	000000c4 sin
0000fdb4 g     F .text	00000188 __lshift
0001b964 g     O .bss	00000008 _alt_nticks
00013918 g     F .text	000000a0 signal
00014f0c g     F .text	00000108 read
000152ec g     F .text	000000a0 alt_sys_init
00016268 g     F .text	0000008c alt_up_character_lcd_shift_display
0000729c g     F .text	00000124 .hidden __floatsisf
000175b0 g     F .text	00000090 __register_exitproc
000164ec g     F .text	0000003c alt_up_rs232_get_available_space_in_write_FIFO
00002144 g     F .text	00000118 normalize_audio
0000f9a8 g     F .text	000002c4 __multiply
000162f4 g     F .text	0000008c alt_up_character_lcd_erase_pos
00003bf0 g     F .text	00001108 __ieee754_pow
00015854 g     F .text	00000068 altera_avalon_jtag_uart_close
000031fc g     F .text	000002bc pow
0000714c g     F .text	00000028 .hidden __mulsi3
0001801c g       *ABS*	00000000 __ram_rwdata_start
00017760 g       *ABS*	00000000 __ram_rodata_start
0001b970 g     O .bss	00000028 __malloc_current_mallinfo
00007174 g     F .text	00000070 .hidden __eqsf2
00010324 g     F .text	00000164 __d2b
0001538c g     F .text	00000060 altera_avalon_jtag_uart_read_fd
000173a0 g     F .text	000000b8 alt_get_fd
00012008 g     F .text	00000058 _close_r
00017538 g     F .text	00000078 memcmp
0001544c g     F .text	00000050 altera_avalon_jtag_uart_close_fd
0001ba98 g       *ABS*	00000000 __alt_stack_base
0001549c g     F .text	00000054 altera_avalon_jtag_uart_ioctl_fd
0000c984 g     F .text	00000164 __swsetup_r
00007dac g     F .text	00000914 .hidden __divdf3
0000e958 g     F .text	00000154 __sfp
0001059c g     F .text	0000007c __copybits
00018440 g     O .rwdata	00000408 __malloc_av_
0000eadc g     F .text	00000004 __sinit_lock_release
00008910 g     F .text	000007ac .hidden __muldf3
00010824 g     F .text	00000054 __sread
0001644c g     F .text	00000060 alt_up_rs232_disable_read_interrupt
00017298 g     F .text	00000108 alt_find_file
0001693c g     F .text	000000a8 alt_dev_llist_insert
00014e88 g     F .text	00000024 __malloc_lock
00015084 g     F .text	000000b8 sbrk
0000e678 g     F .text	00000060 _fflush_r
000120d8 g     F .text	00000154 _calloc_r
0001b93c g       *ABS*	00000000 __bss_start
0000f398 g     F .text	000000f0 memset
00001e0c g     F .text	0000026c main
0001b958 g     O .bss	00000004 alt_envp
0001b93c g     O .bss	00000004 __malloc_max_total_mem
000153ec g     F .text	00000060 altera_avalon_jtag_uart_write_fd
00011f8c g     F .text	00000018 __swbuf
000161dc g     F .text	0000008c alt_up_character_lcd_shift_cursor
0001095c g     F .text	00000008 __sclose
08000000 g       *ABS*	00000000 __alt_heap_limit
0001235c g     F .text	00000070 fclose
00009ce0 g     F .text	00000170 .hidden __truncdfsf2
0000cd08 g     F .text	00001748 _dtoa_r
00009ed0 g     F .text	000007e0 _malloc_r
000135a0 g     F .text	00000030 __ascii_wctomb
00019c98 g     O .rwdata	00000004 alt_errno
000123cc g     F .text	00000020 _fiprintf_r
000139b8 g     F .text	00000060 _init_signal
0000ef20 g     F .text	00000098 _fwalk
00012cc8 g     F .text	0000000c _mbtowc_r
00010744 g     F .text	000000e0 putc
00006f98 g     F .text	00000080 .hidden __divsi3
00015fe0 g     F .text	0000003c alt_up_character_lcd_open_dev
0000eb08 g     F .text	0000011c _malloc_trim_r
00017760 g       *ABS*	00000000 __CTOR_END__
00006cd4 g     F .text	00000064 .hidden __math_check_uflow
00015fa8 g     F .text	00000038 alt_up_character_lcd_init
00002bb0 g     F .text	00000114 GetMagnitudeFactor
000133e4 g     F .text	000000b8 strcmp
00017760 g       *ABS*	00000000 __flash_rodata_start
00002558 g     F .text	00000290 GetCoefficient
00017760 g       *ABS*	00000000 __DTOR_LIST__
00016744 g     F .text	0000003c alt_up_rs232_open_dev
000086c0 g     F .text	00000080 .hidden __nedf2
000152b0 g     F .text	0000003c alt_irq_init
00015014 g     F .text	00000070 alt_release_fd
00016380 g     F .text	00000038 alt_up_character_lcd_cursor_off
0001797c g     O .rodata	00000100 .hidden __clz_tab
0001b94c g     O .bss	00000004 _PathLocale
000174f0 g     F .text	00000014 atexit
000071e4 g     F .text	000000b8 .hidden __gesf2
00011fa4 g     F .text	00000064 _write_r
00012bf0 g     F .text	00000074 setlocale
00019c78 g     O .rwdata	00000004 _impure_ptr
0001b950 g     O .bss	00000004 alt_argc
0000e450 g     F .text	00000228 __sflush_r
00006dd8 g     F .text	000001c0 scalbn
00016a48 g     F .text	00000064 _do_dtors
00003564 g     F .text	0000068c __ieee754_log
00002314 g     F .text	00000244 calculate_mfcc
00000020 g       .exceptions	00000000 alt_irq_entry
00012cd4 g     F .text	00000044 __ascii_mbtowc
000101c0 g     F .text	0000005c __ulp
0000eaf4 g     F .text	00000014 __fp_unlock_all
0000225c g     F .text	000000b8 fft
00019c84 g     O .rwdata	00000008 alt_fs_list
000163f0 g     F .text	0000005c alt_up_rs232_enable_read_interrupt
0001656c g     F .text	00000040 alt_up_rs232_write_data
00000020 g       *ABS*	00000000 __ram_exceptions_start
0000f074 g     F .text	0000000c localeconv
00005444 g     F .text	0000026c __ieee754_sqrt
0000f230 g     F .text	00000098 __swhatbuf_r
00019cac g       *ABS*	00000000 _edata
0001ba98 g       *ABS*	00000000 _end
00012424 g     F .text	00000164 __fputwc
00000228 g       *ABS*	00000000 __ram_exceptions_end
000158bc g     F .text	000000f4 altera_avalon_jtag_uart_ioctl
00010880 g     F .text	00000080 __swrite
00019c80 g     O .rwdata	00000004 __malloc_trim_threshold
00017504 g     F .text	00000034 exit
000123ec g     F .text	00000038 fiprintf
0001349c g     F .text	00000004 _vfiprintf_r
0000efb8 g     F .text	000000a8 _fwalk_reent
000073c0 g     F .text	000000fc .hidden __floatunsisf
0000ff94 g     F .text	0000022c __mdiff
00001d1c g     F .text	00000020 kiss_fft_cleanup
00006bd0 g     F .text	0000000c .hidden __math_uflow
00007018 g     F .text	00000074 .hidden __modsi3
08000000 g       *ABS*	00000000 __alt_data_end
00000020 g     F .exceptions	00000000 alt_exception
0000ead4 g     F .text	00000004 __sfp_lock_release
0001609c g     F .text	0000007c alt_up_character_lcd_string
00017d18 g     O .rodata	00000101 _ctype_
000099c8 g     F .text	00000054 .hidden __unorddf2
00014860 g     F .text	00000038 _exit
00016780 g     F .text	00000160 alt_alarm_start
0000f080 g     F .text	000001b0 __smakebuf_r
00010964 g     F .text	00000098 strlen
000135e8 g     F .text	0000005c _init_signal_r
00016f44 g     F .text	00000160 open
00008740 g     F .text	000000e8 .hidden __gedf2
000120c4 g     F .text	00000014 __assert
000028b0 g     F .text	00000300 GetFilterParameter
00010af0 g     F .text	00000018 __sprint_r
00016b3c g     F .text	00000020 alt_icache_flush_all
000027e8 g     F .text	000000c8 NormalizationFactor
00016168 g     F .text	00000074 alt_up_character_lcd_set_cursor_pos
00019ca0 g     O .rwdata	00000004 alt_priority_mask
0000c8a8 g     F .text	0000001c __vfprintf_internal
00001d3c g     F .text	000000d0 kiss_fft_next_fast_size
00013594 g     F .text	0000000c _wctomb_r
000019c4 g     F .text	0000023c kiss_fft_alloc
000090bc g     F .text	0000090c .hidden __subdf3
0000f848 g     F .text	000000b0 __lo0bits
00019ca4 g     O .rwdata	00000008 alt_alarm_list
000169e4 g     F .text	00000064 _do_ctors
00013a18 g     F .text	000000bc __sigtramp
000164ac g     F .text	00000040 alt_up_rs232_get_used_space_in_read_FIFO
0001350c g     F .text	00000088 wcrtomb
00014758 g     F .text	000000dc close
00018848 g     O .rwdata	0000016c __global_locale
00014c6c g     F .text	00000084 alt_load
000125ac g     F .text	00000078 fputwc
0001385c g     F .text	000000bc raise
00009ec0 g     F .text	00000010 free
0000ead8 g     F .text	00000004 __sinit_lock_acquire
0000f550 g     F .text	0000015c __multadd
0000f52c g     F .text	00000024 _Bfree



Disassembly of section .entry:

00000000 <__reset>:
 * Jump to the _start entry point in the .text section if reset code
 * is allowed or if optimizing for RTL simulation.
 */
#if defined(ALT_ALLOW_CODE_AT_RESET) || defined(ALT_SIM_OPTIMIZE)
    /* Jump to the _start entry point in the .text section. */
    movhi r1, %hi(_start)
   0:	00400034 	movhi	at,0
    ori r1, r1, %lo(_start)
   4:	08408a14 	ori	at,at,552
    jmp r1
   8:	0800683a 	jmp	at
	...

Disassembly of section .exceptions:

00000020 <alt_exception>:

#else /* ALT_EXCEPTION_STACK disabled */
        /* 
         * Reserve space on normal stack for registers about to be pushed.
         */
        addi  sp, sp, -76
  20:	deffed04 	addi	sp,sp,-76
         * documentation for details).
         *
         * Leave a gap in the stack frame at 4(sp) for the muldiv handler to
         * store zero into.
         */
        stw   ra,  0(sp)
  24:	dfc00015 	stw	ra,0(sp)
        stw   r1,   8(sp)
  28:	d8400215 	stw	at,8(sp)
        stw   r2,  12(sp)
  2c:	d8800315 	stw	r2,12(sp)
        stw   r3,  16(sp)
  30:	d8c00415 	stw	r3,16(sp)
        stw   r4,  20(sp)
  34:	d9000515 	stw	r4,20(sp)
        stw   r5,  24(sp)
  38:	d9400615 	stw	r5,24(sp)
        stw   r6,  28(sp)
  3c:	d9800715 	stw	r6,28(sp)
        stw   r7,  32(sp)
  40:	d9c00815 	stw	r7,32(sp)
        rdctl r5, estatus   /* Read early to avoid usage stall */
  44:	000b307a 	rdctl	r5,estatus
        stw   r8,  36(sp)
  48:	da000915 	stw	r8,36(sp)
        stw   r9,  40(sp)
  4c:	da400a15 	stw	r9,40(sp)
        stw   r10, 44(sp)
  50:	da800b15 	stw	r10,44(sp)
        stw   r11, 48(sp)
  54:	dac00c15 	stw	r11,48(sp)
        stw   r12, 52(sp)
  58:	db000d15 	stw	r12,52(sp)
        stw   r13, 56(sp)
  5c:	db400e15 	stw	r13,56(sp)
        stw   r14, 60(sp)
  60:	db800f15 	stw	r14,60(sp)
        stw   r15, 64(sp)
  64:	dbc01015 	stw	r15,64(sp)
        /*
         * ea-4 contains the address of the instruction being executed
         * when the exception occured. For interrupt exceptions, we will
         * will be re-issue the isntruction. Store it in 72(sp)
         */
        stw   r5,  68(sp)  /* estatus */
  68:	d9401115 	stw	r5,68(sp)
        addi  r15, ea, -4  /* instruction that caused exception */
  6c:	ebffff04 	addi	r15,ea,-4
        stw   r15,  72(sp)
  70:	dbc01215 	stw	r15,72(sp)
#else
        /*
         * Test to see if the exception was a software exception or caused 
         * by an external interrupt, and vector accordingly.
         */
        rdctl r4, ipending
  74:	0009313a 	rdctl	r4,ipending
        andi  r2, r5, 1
  78:	2880004c 	andi	r2,r5,1
        beq   r2, zero, .Lnot_irq
  7c:	10000326 	beq	r2,zero,8c <alt_exception+0x6c>
        beq   r4, zero, .Lnot_irq
  80:	20000226 	beq	r4,zero,8c <alt_exception+0x6c>
        /*
         * Now that all necessary registers have been preserved, call 
         * alt_irq_handler() to process the interrupts.
         */

        call alt_irq_handler
  84:	00000fc0 	call	fc <alt_irq_handler>

        .section .exceptions.irqreturn, "xa"

        br    .Lexception_exit
  88:	00000706 	br	a8 <alt_exception+0x88>
         * upon completion, so we write ea (address of instruction *after*
         * the one where the exception occured) into 72(sp). The actual
         * instruction that caused the exception is written in r2, which these
         * handlers will utilize.
         */
        stw ea, 72(sp) /* EA is PC+4 so will skip over instruction causing exception */
  8c:	df401215 	stw	ea,72(sp)
.Lunknown_16bit:
        addi.n r4, r4, 2 /* Need PC+2 to skip over instruction causing exception */
        stw r4, 72(sp)

#else /* CDX is not Enabled and all instructions are 32bits */
        ldw r2, -4(ea) /* Instruction value that caused exception */
  90:	e8bfff17 	ldw	r2,-4(ea)
         * debugger is present) or go into an infinite loop since the
         * handling behavior is undefined; in that case we will not return here.
         */

        /* Load exception-causing address as first argument (r4) */
        addi   r4, ea, -4
  94:	e93fff04 	addi	r4,ea,-4

        /* Call the instruction-exception entry */
        call   alt_instruction_exception_entry
  98:	00001c80 	call	1c8 <alt_instruction_exception_entry>
         * instruction
         *
         * Return code was 0: Skip. The instruction after the exception is
         * already stored in 72(sp).
         */
        bne   r2, r0, .Lexception_exit
  9c:	1000021e 	bne	r2,zero,a8 <alt_exception+0x88>

        /*
         * Otherwise, modify 72(sp) to re-issue the instruction that caused the
         * exception.
         */
        addi  r15, ea, -4  /* instruction that caused exception */
  a0:	ebffff04 	addi	r15,ea,-4
        stw   r15,  72(sp)
  a4:	dbc01215 	stw	r15,72(sp)
        /* 
         * Restore the saved registers, so that all general purpose registers 
         * have been restored to their state at the time the interrupt occured.
         */

        ldw   r5,  68(sp)
  a8:	d9401117 	ldw	r5,68(sp)
        ldw   ea,  72(sp)  /* This becomes the PC once eret is executed */
  ac:	df401217 	ldw	ea,72(sp)
        ldw   ra,   0(sp)
  b0:	dfc00017 	ldw	ra,0(sp)

        wrctl estatus, r5
  b4:	2801707a 	wrctl	estatus,r5

        ldw   r1,   8(sp)
  b8:	d8400217 	ldw	at,8(sp)
        ldw   r2,  12(sp)
  bc:	d8800317 	ldw	r2,12(sp)
        ldw   r3,  16(sp)
  c0:	d8c00417 	ldw	r3,16(sp)
        ldw   r4,  20(sp)
  c4:	d9000517 	ldw	r4,20(sp)
        ldw   r5,  24(sp)
  c8:	d9400617 	ldw	r5,24(sp)
        ldw   r6,  28(sp)
  cc:	d9800717 	ldw	r6,28(sp)
        ldw   r7,  32(sp)
  d0:	d9c00817 	ldw	r7,32(sp)

#if defined(ALT_EXCEPTION_STACK) && defined(ALT_STACK_CHECK)
        ldw   et, %gprel(alt_exception_old_stack_limit)(gp)
#endif

        ldw   r8,  36(sp)
  d4:	da000917 	ldw	r8,36(sp)
        ldw   r9,  40(sp)
  d8:	da400a17 	ldw	r9,40(sp)
        ldw   r10, 44(sp)
  dc:	da800b17 	ldw	r10,44(sp)
        ldw   r11, 48(sp)
  e0:	dac00c17 	ldw	r11,48(sp)
        ldw   r12, 52(sp)
  e4:	db000d17 	ldw	r12,52(sp)
        ldw   r13, 56(sp)
  e8:	db400e17 	ldw	r13,56(sp)
        ldw   r14, 60(sp)
  ec:	db800f17 	ldw	r14,60(sp)
        ldw   r15, 64(sp)
  f0:	dbc01017 	ldw	r15,64(sp)
        stw   et, %gprel(alt_stack_limit_value)(gp)
        stw   zero, %gprel(alt_exception_old_stack_limit)(gp)
#endif /* ALT_STACK_CHECK */
        ldw   sp,  76(sp)
#else /* ALT_EXCEPTION_STACK disabled */
        addi  sp, sp, 76
  f4:	dec01304 	addi	sp,sp,76

        /*
         * Return to the interrupted instruction.
         */

        eret
  f8:	ef80083a 	eret

000000fc <alt_irq_handler>:
 * instruction is present if the macro ALT_CI_INTERRUPT_VECTOR defined.
 */

void alt_irq_handler (void) __attribute__ ((section (".exceptions")));
void alt_irq_handler (void)
{
  fc:	defff904 	addi	sp,sp,-28
 100:	dfc00615 	stw	ra,24(sp)
 104:	df000515 	stw	fp,20(sp)
 108:	df000504 	addi	fp,sp,20
  
  /*
   * Notify the operating system that we are at interrupt level.
   */ 
  
  ALT_OS_INT_ENTER();
 10c:	0001883a 	nop
#ifndef NIOS2_EIC_PRESENT
static ALT_INLINE alt_u32 ALT_ALWAYS_INLINE alt_irq_pending (void)
{
  alt_u32 active;

  NIOS2_READ_IPENDING (active);
 110:	0005313a 	rdctl	r2,ipending
 114:	e0bffc15 	stw	r2,-16(fp)

  return active;
 118:	e0bffc17 	ldw	r2,-16(fp)
   * Consider the case where the high priority interupt is asserted during
   * the interrupt entry sequence for a lower priority interrupt to see why
   * this is the case.
   */

  active = alt_irq_pending ();
 11c:	e0bfff15 	stw	r2,-4(fp)

  do
  {
    i = 0;
 120:	e03ffd15 	stw	zero,-12(fp)
    mask = 1;
 124:	00800044 	movi	r2,1
 128:	e0bffe15 	stw	r2,-8(fp)
     * called to clear the interrupt condition.
     */

    do
    {
      if (active & mask)
 12c:	e0ffff17 	ldw	r3,-4(fp)
 130:	e0bffe17 	ldw	r2,-8(fp)
 134:	1884703a 	and	r2,r3,r2
 138:	10001226 	beq	r2,zero,184 <alt_irq_handler+0x88>
      { 
#ifdef ALT_ENHANCED_INTERRUPT_API_PRESENT
        alt_irq[i].handler(alt_irq[i].context); 
#else
        alt_irq[i].handler(alt_irq[i].context, i); 
 13c:	e0bffd17 	ldw	r2,-12(fp)
 140:	100690fa 	slli	r3,r2,3
 144:	008000b4 	movhi	r2,2
 148:	1885883a 	add	r2,r3,r2
 14c:	10ee6617 	ldw	r3,-18024(r2)
 150:	e0bffd17 	ldw	r2,-12(fp)
 154:	100890fa 	slli	r4,r2,3
 158:	008000b4 	movhi	r2,2
 15c:	2085883a 	add	r2,r4,r2
 160:	10ae6717 	ldw	r2,-18020(r2)
 164:	e17ffd17 	ldw	r5,-12(fp)
 168:	1009883a 	mov	r4,r2
 16c:	183ee83a 	callr	r3
#endif
        break;
 170:	0001883a 	nop
  NIOS2_READ_IPENDING (active);
 174:	0005313a 	rdctl	r2,ipending
 178:	e0bffb15 	stw	r2,-20(fp)
  return active;
 17c:	e0bffb17 	ldw	r2,-20(fp)
 180:	00000706 	br	1a0 <alt_irq_handler+0xa4>
      }
      mask <<= 1;
 184:	e0bffe17 	ldw	r2,-8(fp)
 188:	1085883a 	add	r2,r2,r2
 18c:	e0bffe15 	stw	r2,-8(fp)
      i++;
 190:	e0bffd17 	ldw	r2,-12(fp)
 194:	10800044 	addi	r2,r2,1
 198:	e0bffd15 	stw	r2,-12(fp)
      if (active & mask)
 19c:	003fe306 	br	12c <alt_irq_handler+0x30>

    } while (1);

    active = alt_irq_pending ();
 1a0:	e0bfff15 	stw	r2,-4(fp)
    
  } while (active);
 1a4:	e0bfff17 	ldw	r2,-4(fp)
 1a8:	103fdd1e 	bne	r2,zero,120 <alt_irq_handler+0x24>

  /*
   * Notify the operating system that interrupt processing is complete.
   */ 

  ALT_OS_INT_EXIT();
 1ac:	0001883a 	nop
}
 1b0:	0001883a 	nop
 1b4:	e037883a 	mov	sp,fp
 1b8:	dfc00117 	ldw	ra,4(sp)
 1bc:	df000017 	ldw	fp,0(sp)
 1c0:	dec00204 	addi	sp,sp,8
 1c4:	f800283a 	ret

000001c8 <alt_instruction_exception_entry>:
 * that handler if it has been registered. Absent a handler, it will
 * break break or hang as discussed below.
 */
int 
alt_instruction_exception_entry (alt_u32 exception_pc)
{
 1c8:	defffb04 	addi	sp,sp,-20
 1cc:	dfc00415 	stw	ra,16(sp)
 1d0:	df000315 	stw	fp,12(sp)
 1d4:	df000304 	addi	fp,sp,12
 1d8:	e13ffd15 	stw	r4,-12(fp)
  cause = ( (cause & NIOS2_EXCEPTION_REG_CAUSE_MASK) >>
              NIOS2_EXCEPTION_REG_CAUSE_OFST );

  NIOS2_READ_BADADDR(badaddr);
#else
  cause = NIOS2_EXCEPTION_CAUSE_NOT_PRESENT;
 1dc:	00bfffc4 	movi	r2,-1
 1e0:	e0bfff15 	stw	r2,-4(fp)
  badaddr = 0;
 1e4:	e03ffe15 	stw	zero,-8(fp)
#endif /* NIOS2_HAS_EXTRA_EXCEPTION_INFO */

  if(alt_instruction_exception_handler) {
 1e8:	d0a73e17 	ldw	r2,-25352(gp)
 1ec:	10000726 	beq	r2,zero,20c <alt_instruction_exception_entry+0x44>
     * Call handler. Its return value indicates whether the exception-causing
     * instruction should be re-issued. The code that called us,
     * alt_eceptions_entry.S, will look at this value and adjust the ea
     * register as necessary
     */
    return alt_instruction_exception_handler(cause, exception_pc, badaddr);
 1f0:	d0a73e17 	ldw	r2,-25352(gp)
 1f4:	e0ffff17 	ldw	r3,-4(fp)
 1f8:	e1bffe17 	ldw	r6,-8(fp)
 1fc:	e17ffd17 	ldw	r5,-12(fp)
 200:	1809883a 	mov	r4,r3
 204:	103ee83a 	callr	r2
 208:	00000206 	br	214 <alt_instruction_exception_entry+0x4c>
   *    (a peripheral which negates its interrupt output before its
   *    interrupt handler has been executed will cause spurious interrupts)
   */
  else {
#ifdef NIOS2_HAS_DEBUG_STUB
    NIOS2_BREAK();
 20c:	003da03a 	break	0
      ;
#endif /* NIOS2_HAS_DEBUG_STUB */
  }

  /* We should not get here. Remove compiler warning. */
  return NIOS2_EXCEPTION_RETURN_REISSUE_INST;
 210:	0005883a 	mov	r2,zero
}
 214:	e037883a 	mov	sp,fp
 218:	dfc00117 	ldw	ra,4(sp)
 21c:	df000017 	ldw	fp,0(sp)
 220:	dec00204 	addi	sp,sp,8
 224:	f800283a 	ret

Disassembly of section .text:

00000228 <_start>:

    /*
     * Now that the caches are initialized, set up the stack pointer and global pointer.
     * The values provided by the linker are assumed to be correctly aligned.
     */
    movhi sp, %hi(__alt_stack_pointer)
     228:	06c20034 	movhi	sp,2048
    ori sp, sp, %lo(__alt_stack_pointer)
     22c:	dec00014 	ori	sp,sp,0
    movhi gp, %hi(_gp)
     230:	068000b4 	movhi	gp,2
    ori gp, gp, %lo(_gp)
     234:	d6871d14 	ori	gp,gp,7284
 */
#ifndef ALT_SIM_OPTIMIZE
    /* Log that the BSS is about to be cleared. */
    ALT_LOG_PUTS(alt_log_msg_bss)

    movhi r2, %hi(__bss_start)
     238:	00800074 	movhi	r2,1
    ori r2, r2, %lo(__bss_start)
     23c:	10ae4f14 	ori	r2,r2,47420

    movhi r3, %hi(__bss_end)
     240:	00c00074 	movhi	r3,1
    ori r3, r3, %lo(__bss_end)
     244:	18eea614 	ori	r3,r3,47768

    beq r2, r3, 1f
     248:	10c00326 	beq	r2,r3,258 <_start+0x30>

0:
    stw zero, (r2)
     24c:	10000015 	stw	zero,0(r2)
    addi r2, r2, 4
     250:	10800104 	addi	r2,r2,4
    bltu r2, r3, 0b
     254:	10fffd36 	bltu	r2,r3,24c <_start+0x24>
     * section aren't defined until alt_load() has been called).
     */
    mov   et, zero
#endif

    call alt_load
     258:	0014c6c0 	call	14c6c <alt_load>

    /* Log that alt_main is about to be called. */
    ALT_LOG_PUTS(alt_log_msg_alt_main)

    /* Call the C entry point. It should never return. */
    call alt_main
     25c:	0014e0c0 	call	14e0c <alt_main>

00000260 <alt_after_alt_main>:

    /* Wait in infinite loop in case alt_main does return. */
alt_after_alt_main:
    br alt_after_alt_main
     260:	003fff06 	br	260 <alt_after_alt_main>

00000264 <kf_bfly2>:
        kiss_fft_cpx * Fout,
        const size_t fstride,
        const kiss_fft_cfg st,
        int m
        )
{
     264:	defff704 	addi	sp,sp,-36
     268:	df000815 	stw	fp,32(sp)
     26c:	df000804 	addi	fp,sp,32
     270:	e13ffb15 	stw	r4,-20(fp)
     274:	e17ffa15 	stw	r5,-24(fp)
     278:	e1bff915 	stw	r6,-28(fp)
     27c:	e1fff815 	stw	r7,-32(fp)
    kiss_fft_cpx * Fout2;
    kiss_fft_cpx * tw1 = st->twiddles;
     280:	e0bff917 	ldw	r2,-28(fp)
     284:	10804204 	addi	r2,r2,264
     288:	e0bffe15 	stw	r2,-8(fp)
    kiss_fft_cpx t;
    Fout2 = Fout + m;
     28c:	e0bff817 	ldw	r2,-32(fp)
     290:	100490fa 	slli	r2,r2,3
     294:	e0fffb17 	ldw	r3,-20(fp)
     298:	1885883a 	add	r2,r3,r2
     29c:	e0bfff15 	stw	r2,-4(fp)
    do{
        C_FIXDIV(*Fout,2); C_FIXDIV(*Fout2,2);

        C_MUL (t,  *Fout2 , *tw1);
     2a0:	e0bfff17 	ldw	r2,-4(fp)
     2a4:	10c00017 	ldw	r3,0(r2)
     2a8:	e13ffe17 	ldw	r4,-8(fp)
     2ac:	20800017 	ldw	r2,0(r4)
     2b0:	1887ff32 	custom	252,r3,r3,r2
     2b4:	e0bfff17 	ldw	r2,-4(fp)
     2b8:	11000117 	ldw	r4,4(r2)
     2bc:	e17ffe17 	ldw	r5,-8(fp)
     2c0:	28800117 	ldw	r2,4(r5)
     2c4:	2085ff32 	custom	252,r2,r4,r2
     2c8:	1885ffb2 	custom	254,r2,r3,r2
     2cc:	e0bffc15 	stw	r2,-16(fp)
     2d0:	e0bfff17 	ldw	r2,-4(fp)
     2d4:	10c00017 	ldw	r3,0(r2)
     2d8:	e13ffe17 	ldw	r4,-8(fp)
     2dc:	20800117 	ldw	r2,4(r4)
     2e0:	1887ff32 	custom	252,r3,r3,r2
     2e4:	e0bfff17 	ldw	r2,-4(fp)
     2e8:	11000117 	ldw	r4,4(r2)
     2ec:	e17ffe17 	ldw	r5,-8(fp)
     2f0:	28800017 	ldw	r2,0(r5)
     2f4:	2085ff32 	custom	252,r2,r4,r2
     2f8:	1885ff72 	custom	253,r2,r3,r2
     2fc:	e0bffd15 	stw	r2,-12(fp)
        tw1 += fstride;
     300:	e0bffa17 	ldw	r2,-24(fp)
     304:	100490fa 	slli	r2,r2,3
     308:	e0fffe17 	ldw	r3,-8(fp)
     30c:	1885883a 	add	r2,r3,r2
     310:	e0bffe15 	stw	r2,-8(fp)
        C_SUB( *Fout2 ,  *Fout , t );
     314:	e0bffb17 	ldw	r2,-20(fp)
     318:	10c00017 	ldw	r3,0(r2)
     31c:	e0bffc17 	ldw	r2,-16(fp)
     320:	1887ffb2 	custom	254,r3,r3,r2
     324:	e0bfff17 	ldw	r2,-4(fp)
     328:	10c00015 	stw	r3,0(r2)
     32c:	e0bffb17 	ldw	r2,-20(fp)
     330:	10c00117 	ldw	r3,4(r2)
     334:	e0bffd17 	ldw	r2,-12(fp)
     338:	1887ffb2 	custom	254,r3,r3,r2
     33c:	e0bfff17 	ldw	r2,-4(fp)
     340:	10c00115 	stw	r3,4(r2)
        C_ADDTO( *Fout ,  t );
     344:	e0bffb17 	ldw	r2,-20(fp)
     348:	10c00017 	ldw	r3,0(r2)
     34c:	e0bffc17 	ldw	r2,-16(fp)
     350:	1887ff72 	custom	253,r3,r3,r2
     354:	e0bffb17 	ldw	r2,-20(fp)
     358:	10c00015 	stw	r3,0(r2)
     35c:	e0bffb17 	ldw	r2,-20(fp)
     360:	10c00117 	ldw	r3,4(r2)
     364:	e0bffd17 	ldw	r2,-12(fp)
     368:	1887ff72 	custom	253,r3,r3,r2
     36c:	e0bffb17 	ldw	r2,-20(fp)
     370:	10c00115 	stw	r3,4(r2)
        ++Fout2;
     374:	e0bfff17 	ldw	r2,-4(fp)
     378:	10800204 	addi	r2,r2,8
     37c:	e0bfff15 	stw	r2,-4(fp)
        ++Fout;
     380:	e0bffb17 	ldw	r2,-20(fp)
     384:	10800204 	addi	r2,r2,8
     388:	e0bffb15 	stw	r2,-20(fp)
    }while (--m);
     38c:	e0bff817 	ldw	r2,-32(fp)
     390:	10bfffc4 	addi	r2,r2,-1
     394:	e0bff815 	stw	r2,-32(fp)
     398:	e0bff817 	ldw	r2,-32(fp)
     39c:	103fc01e 	bne	r2,zero,2a0 <kf_bfly2+0x3c>
}
     3a0:	0001883a 	nop
     3a4:	0001883a 	nop
     3a8:	e037883a 	mov	sp,fp
     3ac:	df000017 	ldw	fp,0(sp)
     3b0:	dec00104 	addi	sp,sp,4
     3b4:	f800283a 	ret

000003b8 <kf_bfly4>:
        kiss_fft_cpx * Fout,
        const size_t fstride,
        const kiss_fft_cfg st,
        const size_t m
        )
{
     3b8:	deffe904 	addi	sp,sp,-92
     3bc:	df001615 	stw	fp,88(sp)
     3c0:	df001604 	addi	fp,sp,88
     3c4:	e13fed15 	stw	r4,-76(fp)
     3c8:	e17fec15 	stw	r5,-80(fp)
     3cc:	e1bfeb15 	stw	r6,-84(fp)
     3d0:	e1ffea15 	stw	r7,-88(fp)
    kiss_fft_cpx *tw1,*tw2,*tw3;
    kiss_fft_cpx scratch[6];
    size_t k=m;
     3d4:	e0bfea17 	ldw	r2,-88(fp)
     3d8:	e0bffc15 	stw	r2,-16(fp)
    const size_t m2=2*m;
     3dc:	e0bfea17 	ldw	r2,-88(fp)
     3e0:	1085883a 	add	r2,r2,r2
     3e4:	e0bffb15 	stw	r2,-20(fp)
    const size_t m3=3*m;
     3e8:	e0ffea17 	ldw	r3,-88(fp)
     3ec:	1805883a 	mov	r2,r3
     3f0:	1085883a 	add	r2,r2,r2
     3f4:	10c5883a 	add	r2,r2,r3
     3f8:	e0bffa15 	stw	r2,-24(fp)


    tw3 = tw2 = tw1 = st->twiddles;
     3fc:	e0bfeb17 	ldw	r2,-84(fp)
     400:	10804204 	addi	r2,r2,264
     404:	e0bfff15 	stw	r2,-4(fp)
     408:	e0bfff17 	ldw	r2,-4(fp)
     40c:	e0bffe15 	stw	r2,-8(fp)
     410:	e0bffe17 	ldw	r2,-8(fp)
     414:	e0bffd15 	stw	r2,-12(fp)

    do {
        C_FIXDIV(*Fout,4); C_FIXDIV(Fout[m],4); C_FIXDIV(Fout[m2],4); C_FIXDIV(Fout[m3],4);

        C_MUL(scratch[0],Fout[m] , *tw1 );
     418:	e0bfea17 	ldw	r2,-88(fp)
     41c:	100490fa 	slli	r2,r2,3
     420:	e0ffed17 	ldw	r3,-76(fp)
     424:	1885883a 	add	r2,r3,r2
     428:	10c00017 	ldw	r3,0(r2)
     42c:	e13fff17 	ldw	r4,-4(fp)
     430:	20800017 	ldw	r2,0(r4)
     434:	1887ff32 	custom	252,r3,r3,r2
     438:	e0bfea17 	ldw	r2,-88(fp)
     43c:	100490fa 	slli	r2,r2,3
     440:	e13fed17 	ldw	r4,-76(fp)
     444:	2085883a 	add	r2,r4,r2
     448:	11000117 	ldw	r4,4(r2)
     44c:	e17fff17 	ldw	r5,-4(fp)
     450:	28800117 	ldw	r2,4(r5)
     454:	2085ff32 	custom	252,r2,r4,r2
     458:	1885ffb2 	custom	254,r2,r3,r2
     45c:	e0bfee15 	stw	r2,-72(fp)
     460:	e0bfea17 	ldw	r2,-88(fp)
     464:	100490fa 	slli	r2,r2,3
     468:	e0ffed17 	ldw	r3,-76(fp)
     46c:	1885883a 	add	r2,r3,r2
     470:	10c00017 	ldw	r3,0(r2)
     474:	e13fff17 	ldw	r4,-4(fp)
     478:	20800117 	ldw	r2,4(r4)
     47c:	1887ff32 	custom	252,r3,r3,r2
     480:	e0bfea17 	ldw	r2,-88(fp)
     484:	100490fa 	slli	r2,r2,3
     488:	e13fed17 	ldw	r4,-76(fp)
     48c:	2085883a 	add	r2,r4,r2
     490:	11000117 	ldw	r4,4(r2)
     494:	e17fff17 	ldw	r5,-4(fp)
     498:	28800017 	ldw	r2,0(r5)
     49c:	2085ff32 	custom	252,r2,r4,r2
     4a0:	1885ff72 	custom	253,r2,r3,r2
     4a4:	e0bfef15 	stw	r2,-68(fp)
        C_MUL(scratch[1],Fout[m2] , *tw2 );
     4a8:	e0bffb17 	ldw	r2,-20(fp)
     4ac:	100490fa 	slli	r2,r2,3
     4b0:	e0ffed17 	ldw	r3,-76(fp)
     4b4:	1885883a 	add	r2,r3,r2
     4b8:	10c00017 	ldw	r3,0(r2)
     4bc:	e13ffe17 	ldw	r4,-8(fp)
     4c0:	20800017 	ldw	r2,0(r4)
     4c4:	1887ff32 	custom	252,r3,r3,r2
     4c8:	e0bffb17 	ldw	r2,-20(fp)
     4cc:	100490fa 	slli	r2,r2,3
     4d0:	e13fed17 	ldw	r4,-76(fp)
     4d4:	2085883a 	add	r2,r4,r2
     4d8:	11000117 	ldw	r4,4(r2)
     4dc:	e17ffe17 	ldw	r5,-8(fp)
     4e0:	28800117 	ldw	r2,4(r5)
     4e4:	2085ff32 	custom	252,r2,r4,r2
     4e8:	1885ffb2 	custom	254,r2,r3,r2
     4ec:	e0bff015 	stw	r2,-64(fp)
     4f0:	e0bffb17 	ldw	r2,-20(fp)
     4f4:	100490fa 	slli	r2,r2,3
     4f8:	e0ffed17 	ldw	r3,-76(fp)
     4fc:	1885883a 	add	r2,r3,r2
     500:	10c00017 	ldw	r3,0(r2)
     504:	e13ffe17 	ldw	r4,-8(fp)
     508:	20800117 	ldw	r2,4(r4)
     50c:	1887ff32 	custom	252,r3,r3,r2
     510:	e0bffb17 	ldw	r2,-20(fp)
     514:	100490fa 	slli	r2,r2,3
     518:	e13fed17 	ldw	r4,-76(fp)
     51c:	2085883a 	add	r2,r4,r2
     520:	11000117 	ldw	r4,4(r2)
     524:	e17ffe17 	ldw	r5,-8(fp)
     528:	28800017 	ldw	r2,0(r5)
     52c:	2085ff32 	custom	252,r2,r4,r2
     530:	1885ff72 	custom	253,r2,r3,r2
     534:	e0bff115 	stw	r2,-60(fp)
        C_MUL(scratch[2],Fout[m3] , *tw3 );
     538:	e0bffa17 	ldw	r2,-24(fp)
     53c:	100490fa 	slli	r2,r2,3
     540:	e0ffed17 	ldw	r3,-76(fp)
     544:	1885883a 	add	r2,r3,r2
     548:	10c00017 	ldw	r3,0(r2)
     54c:	e13ffd17 	ldw	r4,-12(fp)
     550:	20800017 	ldw	r2,0(r4)
     554:	1887ff32 	custom	252,r3,r3,r2
     558:	e0bffa17 	ldw	r2,-24(fp)
     55c:	100490fa 	slli	r2,r2,3
     560:	e13fed17 	ldw	r4,-76(fp)
     564:	2085883a 	add	r2,r4,r2
     568:	11000117 	ldw	r4,4(r2)
     56c:	e17ffd17 	ldw	r5,-12(fp)
     570:	28800117 	ldw	r2,4(r5)
     574:	2085ff32 	custom	252,r2,r4,r2
     578:	1885ffb2 	custom	254,r2,r3,r2
     57c:	e0bff215 	stw	r2,-56(fp)
     580:	e0bffa17 	ldw	r2,-24(fp)
     584:	100490fa 	slli	r2,r2,3
     588:	e0ffed17 	ldw	r3,-76(fp)
     58c:	1885883a 	add	r2,r3,r2
     590:	10c00017 	ldw	r3,0(r2)
     594:	e13ffd17 	ldw	r4,-12(fp)
     598:	20800117 	ldw	r2,4(r4)
     59c:	1887ff32 	custom	252,r3,r3,r2
     5a0:	e0bffa17 	ldw	r2,-24(fp)
     5a4:	100490fa 	slli	r2,r2,3
     5a8:	e13fed17 	ldw	r4,-76(fp)
     5ac:	2085883a 	add	r2,r4,r2
     5b0:	11000117 	ldw	r4,4(r2)
     5b4:	e17ffd17 	ldw	r5,-12(fp)
     5b8:	28800017 	ldw	r2,0(r5)
     5bc:	2085ff32 	custom	252,r2,r4,r2
     5c0:	1885ff72 	custom	253,r2,r3,r2
     5c4:	e0bff315 	stw	r2,-52(fp)

        C_SUB( scratch[5] , *Fout, scratch[1] );
     5c8:	e0bfed17 	ldw	r2,-76(fp)
     5cc:	10c00017 	ldw	r3,0(r2)
     5d0:	e0bff017 	ldw	r2,-64(fp)
     5d4:	1885ffb2 	custom	254,r2,r3,r2
     5d8:	e0bff815 	stw	r2,-32(fp)
     5dc:	e0bfed17 	ldw	r2,-76(fp)
     5e0:	10c00117 	ldw	r3,4(r2)
     5e4:	e0bff117 	ldw	r2,-60(fp)
     5e8:	1885ffb2 	custom	254,r2,r3,r2
     5ec:	e0bff915 	stw	r2,-28(fp)
        C_ADDTO(*Fout, scratch[1]);
     5f0:	e0bfed17 	ldw	r2,-76(fp)
     5f4:	10c00017 	ldw	r3,0(r2)
     5f8:	e0bff017 	ldw	r2,-64(fp)
     5fc:	1887ff72 	custom	253,r3,r3,r2
     600:	e0bfed17 	ldw	r2,-76(fp)
     604:	10c00015 	stw	r3,0(r2)
     608:	e0bfed17 	ldw	r2,-76(fp)
     60c:	10c00117 	ldw	r3,4(r2)
     610:	e0bff117 	ldw	r2,-60(fp)
     614:	1887ff72 	custom	253,r3,r3,r2
     618:	e0bfed17 	ldw	r2,-76(fp)
     61c:	10c00115 	stw	r3,4(r2)
        C_ADD( scratch[3] , scratch[0] , scratch[2] );
     620:	e0ffee17 	ldw	r3,-72(fp)
     624:	e0bff217 	ldw	r2,-56(fp)
     628:	1885ff72 	custom	253,r2,r3,r2
     62c:	e0bff415 	stw	r2,-48(fp)
     630:	e0ffef17 	ldw	r3,-68(fp)
     634:	e0bff317 	ldw	r2,-52(fp)
     638:	1885ff72 	custom	253,r2,r3,r2
     63c:	e0bff515 	stw	r2,-44(fp)
        C_SUB( scratch[4] , scratch[0] , scratch[2] );
     640:	e0ffee17 	ldw	r3,-72(fp)
     644:	e0bff217 	ldw	r2,-56(fp)
     648:	1885ffb2 	custom	254,r2,r3,r2
     64c:	e0bff615 	stw	r2,-40(fp)
     650:	e0ffef17 	ldw	r3,-68(fp)
     654:	e0bff317 	ldw	r2,-52(fp)
     658:	1885ffb2 	custom	254,r2,r3,r2
     65c:	e0bff715 	stw	r2,-36(fp)
        C_SUB( Fout[m2], *Fout, scratch[3] );
     660:	e0bfed17 	ldw	r2,-76(fp)
     664:	11000017 	ldw	r4,0(r2)
     668:	e0fff417 	ldw	r3,-48(fp)
     66c:	e0bffb17 	ldw	r2,-20(fp)
     670:	100490fa 	slli	r2,r2,3
     674:	e17fed17 	ldw	r5,-76(fp)
     678:	2885883a 	add	r2,r5,r2
     67c:	20c7ffb2 	custom	254,r3,r4,r3
     680:	10c00015 	stw	r3,0(r2)
     684:	e0bfed17 	ldw	r2,-76(fp)
     688:	11000117 	ldw	r4,4(r2)
     68c:	e0fff517 	ldw	r3,-44(fp)
     690:	e0bffb17 	ldw	r2,-20(fp)
     694:	100490fa 	slli	r2,r2,3
     698:	e17fed17 	ldw	r5,-76(fp)
     69c:	2885883a 	add	r2,r5,r2
     6a0:	20c7ffb2 	custom	254,r3,r4,r3
     6a4:	10c00115 	stw	r3,4(r2)
        tw1 += fstride;
     6a8:	e0bfec17 	ldw	r2,-80(fp)
     6ac:	100490fa 	slli	r2,r2,3
     6b0:	e0ffff17 	ldw	r3,-4(fp)
     6b4:	1885883a 	add	r2,r3,r2
     6b8:	e0bfff15 	stw	r2,-4(fp)
        tw2 += fstride*2;
     6bc:	e0bfec17 	ldw	r2,-80(fp)
     6c0:	1004913a 	slli	r2,r2,4
     6c4:	e0fffe17 	ldw	r3,-8(fp)
     6c8:	1885883a 	add	r2,r3,r2
     6cc:	e0bffe15 	stw	r2,-8(fp)
        tw3 += fstride*3;
     6d0:	e0ffec17 	ldw	r3,-80(fp)
     6d4:	1805883a 	mov	r2,r3
     6d8:	1085883a 	add	r2,r2,r2
     6dc:	10c5883a 	add	r2,r2,r3
     6e0:	100490fa 	slli	r2,r2,3
     6e4:	1007883a 	mov	r3,r2
     6e8:	e0bffd17 	ldw	r2,-12(fp)
     6ec:	10c5883a 	add	r2,r2,r3
     6f0:	e0bffd15 	stw	r2,-12(fp)
        C_ADDTO( *Fout , scratch[3] );
     6f4:	e0bfed17 	ldw	r2,-76(fp)
     6f8:	10c00017 	ldw	r3,0(r2)
     6fc:	e0bff417 	ldw	r2,-48(fp)
     700:	1887ff72 	custom	253,r3,r3,r2
     704:	e0bfed17 	ldw	r2,-76(fp)
     708:	10c00015 	stw	r3,0(r2)
     70c:	e0bfed17 	ldw	r2,-76(fp)
     710:	10c00117 	ldw	r3,4(r2)
     714:	e0bff517 	ldw	r2,-44(fp)
     718:	1887ff72 	custom	253,r3,r3,r2
     71c:	e0bfed17 	ldw	r2,-76(fp)
     720:	10c00115 	stw	r3,4(r2)

        if(st->inverse) {
     724:	e0bfeb17 	ldw	r2,-84(fp)
     728:	10800117 	ldw	r2,4(r2)
     72c:	10002126 	beq	r2,zero,7b4 <kf_bfly4+0x3fc>
            Fout[m].r = scratch[5].r - scratch[4].i;
     730:	e13ff817 	ldw	r4,-32(fp)
     734:	e0fff717 	ldw	r3,-36(fp)
     738:	e0bfea17 	ldw	r2,-88(fp)
     73c:	100490fa 	slli	r2,r2,3
     740:	e17fed17 	ldw	r5,-76(fp)
     744:	2885883a 	add	r2,r5,r2
     748:	20c7ffb2 	custom	254,r3,r4,r3
     74c:	10c00015 	stw	r3,0(r2)
            Fout[m].i = scratch[5].i + scratch[4].r;
     750:	e13ff917 	ldw	r4,-28(fp)
     754:	e0fff617 	ldw	r3,-40(fp)
     758:	e0bfea17 	ldw	r2,-88(fp)
     75c:	100490fa 	slli	r2,r2,3
     760:	e17fed17 	ldw	r5,-76(fp)
     764:	2885883a 	add	r2,r5,r2
     768:	20c7ff72 	custom	253,r3,r4,r3
     76c:	10c00115 	stw	r3,4(r2)
            Fout[m3].r = scratch[5].r + scratch[4].i;
     770:	e13ff817 	ldw	r4,-32(fp)
     774:	e0fff717 	ldw	r3,-36(fp)
     778:	e0bffa17 	ldw	r2,-24(fp)
     77c:	100490fa 	slli	r2,r2,3
     780:	e17fed17 	ldw	r5,-76(fp)
     784:	2885883a 	add	r2,r5,r2
     788:	20c7ff72 	custom	253,r3,r4,r3
     78c:	10c00015 	stw	r3,0(r2)
            Fout[m3].i = scratch[5].i - scratch[4].r;
     790:	e13ff917 	ldw	r4,-28(fp)
     794:	e0fff617 	ldw	r3,-40(fp)
     798:	e0bffa17 	ldw	r2,-24(fp)
     79c:	100490fa 	slli	r2,r2,3
     7a0:	e17fed17 	ldw	r5,-76(fp)
     7a4:	2885883a 	add	r2,r5,r2
     7a8:	20c7ffb2 	custom	254,r3,r4,r3
     7ac:	10c00115 	stw	r3,4(r2)
     7b0:	00002006 	br	834 <kf_bfly4+0x47c>
        }else{
            Fout[m].r = scratch[5].r + scratch[4].i;
     7b4:	e13ff817 	ldw	r4,-32(fp)
     7b8:	e0fff717 	ldw	r3,-36(fp)
     7bc:	e0bfea17 	ldw	r2,-88(fp)
     7c0:	100490fa 	slli	r2,r2,3
     7c4:	e17fed17 	ldw	r5,-76(fp)
     7c8:	2885883a 	add	r2,r5,r2
     7cc:	20c7ff72 	custom	253,r3,r4,r3
     7d0:	10c00015 	stw	r3,0(r2)
            Fout[m].i = scratch[5].i - scratch[4].r;
     7d4:	e13ff917 	ldw	r4,-28(fp)
     7d8:	e0fff617 	ldw	r3,-40(fp)
     7dc:	e0bfea17 	ldw	r2,-88(fp)
     7e0:	100490fa 	slli	r2,r2,3
     7e4:	e17fed17 	ldw	r5,-76(fp)
     7e8:	2885883a 	add	r2,r5,r2
     7ec:	20c7ffb2 	custom	254,r3,r4,r3
     7f0:	10c00115 	stw	r3,4(r2)
            Fout[m3].r = scratch[5].r - scratch[4].i;
     7f4:	e13ff817 	ldw	r4,-32(fp)
     7f8:	e0fff717 	ldw	r3,-36(fp)
     7fc:	e0bffa17 	ldw	r2,-24(fp)
     800:	100490fa 	slli	r2,r2,3
     804:	e17fed17 	ldw	r5,-76(fp)
     808:	2885883a 	add	r2,r5,r2
     80c:	20c7ffb2 	custom	254,r3,r4,r3
     810:	10c00015 	stw	r3,0(r2)
            Fout[m3].i = scratch[5].i + scratch[4].r;
     814:	e13ff917 	ldw	r4,-28(fp)
     818:	e0fff617 	ldw	r3,-40(fp)
     81c:	e0bffa17 	ldw	r2,-24(fp)
     820:	100490fa 	slli	r2,r2,3
     824:	e17fed17 	ldw	r5,-76(fp)
     828:	2885883a 	add	r2,r5,r2
     82c:	20c7ff72 	custom	253,r3,r4,r3
     830:	10c00115 	stw	r3,4(r2)
        }
        ++Fout;
     834:	e0bfed17 	ldw	r2,-76(fp)
     838:	10800204 	addi	r2,r2,8
     83c:	e0bfed15 	stw	r2,-76(fp)
    }while(--k);
     840:	e0bffc17 	ldw	r2,-16(fp)
     844:	10bfffc4 	addi	r2,r2,-1
     848:	e0bffc15 	stw	r2,-16(fp)
     84c:	e0bffc17 	ldw	r2,-16(fp)
     850:	103ef11e 	bne	r2,zero,418 <kf_bfly4+0x60>
}
     854:	0001883a 	nop
     858:	0001883a 	nop
     85c:	e037883a 	mov	sp,fp
     860:	df000017 	ldw	fp,0(sp)
     864:	dec00104 	addi	sp,sp,4
     868:	f800283a 	ret

0000086c <kf_bfly3>:
         kiss_fft_cpx * Fout,
         const size_t fstride,
         const kiss_fft_cfg st,
         size_t m
         )
{
     86c:	deffea04 	addi	sp,sp,-88
     870:	dfc01515 	stw	ra,84(sp)
     874:	df001415 	stw	fp,80(sp)
     878:	df001404 	addi	fp,sp,80
     87c:	e13fef15 	stw	r4,-68(fp)
     880:	e17fee15 	stw	r5,-72(fp)
     884:	e1bfed15 	stw	r6,-76(fp)
     888:	e1ffec15 	stw	r7,-80(fp)
     size_t k=m;
     88c:	e0bfec17 	ldw	r2,-80(fp)
     890:	e0bfff15 	stw	r2,-4(fp)
     const size_t m2 = 2*m;
     894:	e0bfec17 	ldw	r2,-80(fp)
     898:	1085883a 	add	r2,r2,r2
     89c:	e0bffc15 	stw	r2,-16(fp)
     kiss_fft_cpx *tw1,*tw2;
     kiss_fft_cpx scratch[5];
     kiss_fft_cpx epi3;
     epi3 = st->twiddles[fstride*m];
     8a0:	e17fec17 	ldw	r5,-80(fp)
     8a4:	e13fee17 	ldw	r4,-72(fp)
     8a8:	000714c0 	call	714c <__mulsi3>
     8ac:	e0ffed17 	ldw	r3,-76(fp)
     8b0:	10800844 	addi	r2,r2,33
     8b4:	100490fa 	slli	r2,r2,3
     8b8:	1885883a 	add	r2,r3,r2
     8bc:	10c00017 	ldw	r3,0(r2)
     8c0:	e0fff015 	stw	r3,-64(fp)
     8c4:	10800117 	ldw	r2,4(r2)
     8c8:	e0bff115 	stw	r2,-60(fp)

     tw1=tw2=st->twiddles;
     8cc:	e0bfed17 	ldw	r2,-76(fp)
     8d0:	10804204 	addi	r2,r2,264
     8d4:	e0bffd15 	stw	r2,-12(fp)
     8d8:	e0bffd17 	ldw	r2,-12(fp)
     8dc:	e0bffe15 	stw	r2,-8(fp)

     do{
         C_FIXDIV(*Fout,3); C_FIXDIV(Fout[m],3); C_FIXDIV(Fout[m2],3);

         C_MUL(scratch[1],Fout[m] , *tw1);
     8e0:	e0bfec17 	ldw	r2,-80(fp)
     8e4:	100490fa 	slli	r2,r2,3
     8e8:	e0ffef17 	ldw	r3,-68(fp)
     8ec:	1885883a 	add	r2,r3,r2
     8f0:	10c00017 	ldw	r3,0(r2)
     8f4:	e13ffe17 	ldw	r4,-8(fp)
     8f8:	20800017 	ldw	r2,0(r4)
     8fc:	1887ff32 	custom	252,r3,r3,r2
     900:	e0bfec17 	ldw	r2,-80(fp)
     904:	100490fa 	slli	r2,r2,3
     908:	e13fef17 	ldw	r4,-68(fp)
     90c:	2085883a 	add	r2,r4,r2
     910:	11000117 	ldw	r4,4(r2)
     914:	e17ffe17 	ldw	r5,-8(fp)
     918:	28800117 	ldw	r2,4(r5)
     91c:	2085ff32 	custom	252,r2,r4,r2
     920:	1885ffb2 	custom	254,r2,r3,r2
     924:	e0bff415 	stw	r2,-48(fp)
     928:	e0bfec17 	ldw	r2,-80(fp)
     92c:	100490fa 	slli	r2,r2,3
     930:	e0ffef17 	ldw	r3,-68(fp)
     934:	1885883a 	add	r2,r3,r2
     938:	10c00017 	ldw	r3,0(r2)
     93c:	e13ffe17 	ldw	r4,-8(fp)
     940:	20800117 	ldw	r2,4(r4)
     944:	1887ff32 	custom	252,r3,r3,r2
     948:	e0bfec17 	ldw	r2,-80(fp)
     94c:	100490fa 	slli	r2,r2,3
     950:	e13fef17 	ldw	r4,-68(fp)
     954:	2085883a 	add	r2,r4,r2
     958:	11000117 	ldw	r4,4(r2)
     95c:	e17ffe17 	ldw	r5,-8(fp)
     960:	28800017 	ldw	r2,0(r5)
     964:	2085ff32 	custom	252,r2,r4,r2
     968:	1885ff72 	custom	253,r2,r3,r2
     96c:	e0bff515 	stw	r2,-44(fp)
         C_MUL(scratch[2],Fout[m2] , *tw2);
     970:	e0bffc17 	ldw	r2,-16(fp)
     974:	100490fa 	slli	r2,r2,3
     978:	e0ffef17 	ldw	r3,-68(fp)
     97c:	1885883a 	add	r2,r3,r2
     980:	10c00017 	ldw	r3,0(r2)
     984:	e13ffd17 	ldw	r4,-12(fp)
     988:	20800017 	ldw	r2,0(r4)
     98c:	1887ff32 	custom	252,r3,r3,r2
     990:	e0bffc17 	ldw	r2,-16(fp)
     994:	100490fa 	slli	r2,r2,3
     998:	e13fef17 	ldw	r4,-68(fp)
     99c:	2085883a 	add	r2,r4,r2
     9a0:	11000117 	ldw	r4,4(r2)
     9a4:	e17ffd17 	ldw	r5,-12(fp)
     9a8:	28800117 	ldw	r2,4(r5)
     9ac:	2085ff32 	custom	252,r2,r4,r2
     9b0:	1885ffb2 	custom	254,r2,r3,r2
     9b4:	e0bff615 	stw	r2,-40(fp)
     9b8:	e0bffc17 	ldw	r2,-16(fp)
     9bc:	100490fa 	slli	r2,r2,3
     9c0:	e0ffef17 	ldw	r3,-68(fp)
     9c4:	1885883a 	add	r2,r3,r2
     9c8:	10c00017 	ldw	r3,0(r2)
     9cc:	e13ffd17 	ldw	r4,-12(fp)
     9d0:	20800117 	ldw	r2,4(r4)
     9d4:	1887ff32 	custom	252,r3,r3,r2
     9d8:	e0bffc17 	ldw	r2,-16(fp)
     9dc:	100490fa 	slli	r2,r2,3
     9e0:	e13fef17 	ldw	r4,-68(fp)
     9e4:	2085883a 	add	r2,r4,r2
     9e8:	11000117 	ldw	r4,4(r2)
     9ec:	e17ffd17 	ldw	r5,-12(fp)
     9f0:	28800017 	ldw	r2,0(r5)
     9f4:	2085ff32 	custom	252,r2,r4,r2
     9f8:	1885ff72 	custom	253,r2,r3,r2
     9fc:	e0bff715 	stw	r2,-36(fp)

         C_ADD(scratch[3],scratch[1],scratch[2]);
     a00:	e0fff417 	ldw	r3,-48(fp)
     a04:	e0bff617 	ldw	r2,-40(fp)
     a08:	1885ff72 	custom	253,r2,r3,r2
     a0c:	e0bff815 	stw	r2,-32(fp)
     a10:	e0fff517 	ldw	r3,-44(fp)
     a14:	e0bff717 	ldw	r2,-36(fp)
     a18:	1885ff72 	custom	253,r2,r3,r2
     a1c:	e0bff915 	stw	r2,-28(fp)
         C_SUB(scratch[0],scratch[1],scratch[2]);
     a20:	e0fff417 	ldw	r3,-48(fp)
     a24:	e0bff617 	ldw	r2,-40(fp)
     a28:	1885ffb2 	custom	254,r2,r3,r2
     a2c:	e0bff215 	stw	r2,-56(fp)
     a30:	e0fff517 	ldw	r3,-44(fp)
     a34:	e0bff717 	ldw	r2,-36(fp)
     a38:	1885ffb2 	custom	254,r2,r3,r2
     a3c:	e0bff315 	stw	r2,-52(fp)
         tw1 += fstride;
     a40:	e0bfee17 	ldw	r2,-72(fp)
     a44:	100490fa 	slli	r2,r2,3
     a48:	e0fffe17 	ldw	r3,-8(fp)
     a4c:	1885883a 	add	r2,r3,r2
     a50:	e0bffe15 	stw	r2,-8(fp)
         tw2 += fstride*2;
     a54:	e0bfee17 	ldw	r2,-72(fp)
     a58:	1004913a 	slli	r2,r2,4
     a5c:	e0fffd17 	ldw	r3,-12(fp)
     a60:	1885883a 	add	r2,r3,r2
     a64:	e0bffd15 	stw	r2,-12(fp)

         Fout[m].r = Fout->r - HALF_OF(scratch[3].r);
     a68:	e0bfef17 	ldw	r2,-68(fp)
     a6c:	11000017 	ldw	r4,0(r2)
     a70:	e0fff817 	ldw	r3,-32(fp)
     a74:	008fc034 	movhi	r2,16128
     a78:	1887ff32 	custom	252,r3,r3,r2
     a7c:	e0bfec17 	ldw	r2,-80(fp)
     a80:	100490fa 	slli	r2,r2,3
     a84:	e17fef17 	ldw	r5,-68(fp)
     a88:	2885883a 	add	r2,r5,r2
     a8c:	20c7ffb2 	custom	254,r3,r4,r3
     a90:	10c00015 	stw	r3,0(r2)
         Fout[m].i = Fout->i - HALF_OF(scratch[3].i);
     a94:	e0bfef17 	ldw	r2,-68(fp)
     a98:	11000117 	ldw	r4,4(r2)
     a9c:	e0fff917 	ldw	r3,-28(fp)
     aa0:	008fc034 	movhi	r2,16128
     aa4:	1887ff32 	custom	252,r3,r3,r2
     aa8:	e0bfec17 	ldw	r2,-80(fp)
     aac:	100490fa 	slli	r2,r2,3
     ab0:	e17fef17 	ldw	r5,-68(fp)
     ab4:	2885883a 	add	r2,r5,r2
     ab8:	20c7ffb2 	custom	254,r3,r4,r3
     abc:	10c00115 	stw	r3,4(r2)

         C_MULBYSCALAR( scratch[0] , epi3.i );
     ac0:	e0fff217 	ldw	r3,-56(fp)
     ac4:	e0bff117 	ldw	r2,-60(fp)
     ac8:	1885ff32 	custom	252,r2,r3,r2
     acc:	e0bff215 	stw	r2,-56(fp)
     ad0:	e0fff317 	ldw	r3,-52(fp)
     ad4:	e0bff117 	ldw	r2,-60(fp)
     ad8:	1885ff32 	custom	252,r2,r3,r2
     adc:	e0bff315 	stw	r2,-52(fp)

         C_ADDTO(*Fout,scratch[3]);
     ae0:	e0bfef17 	ldw	r2,-68(fp)
     ae4:	10c00017 	ldw	r3,0(r2)
     ae8:	e0bff817 	ldw	r2,-32(fp)
     aec:	1887ff72 	custom	253,r3,r3,r2
     af0:	e0bfef17 	ldw	r2,-68(fp)
     af4:	10c00015 	stw	r3,0(r2)
     af8:	e0bfef17 	ldw	r2,-68(fp)
     afc:	10c00117 	ldw	r3,4(r2)
     b00:	e0bff917 	ldw	r2,-28(fp)
     b04:	1887ff72 	custom	253,r3,r3,r2
     b08:	e0bfef17 	ldw	r2,-68(fp)
     b0c:	10c00115 	stw	r3,4(r2)

         Fout[m2].r = Fout[m].r + scratch[0].i;
     b10:	e0bfec17 	ldw	r2,-80(fp)
     b14:	100490fa 	slli	r2,r2,3
     b18:	e0ffef17 	ldw	r3,-68(fp)
     b1c:	1885883a 	add	r2,r3,r2
     b20:	11000017 	ldw	r4,0(r2)
     b24:	e0fff317 	ldw	r3,-52(fp)
     b28:	e0bffc17 	ldw	r2,-16(fp)
     b2c:	100490fa 	slli	r2,r2,3
     b30:	e17fef17 	ldw	r5,-68(fp)
     b34:	2885883a 	add	r2,r5,r2
     b38:	20c7ff72 	custom	253,r3,r4,r3
     b3c:	10c00015 	stw	r3,0(r2)
         Fout[m2].i = Fout[m].i - scratch[0].r;
     b40:	e0bfec17 	ldw	r2,-80(fp)
     b44:	100490fa 	slli	r2,r2,3
     b48:	e0ffef17 	ldw	r3,-68(fp)
     b4c:	1885883a 	add	r2,r3,r2
     b50:	11000117 	ldw	r4,4(r2)
     b54:	e0fff217 	ldw	r3,-56(fp)
     b58:	e0bffc17 	ldw	r2,-16(fp)
     b5c:	100490fa 	slli	r2,r2,3
     b60:	e17fef17 	ldw	r5,-68(fp)
     b64:	2885883a 	add	r2,r5,r2
     b68:	20c7ffb2 	custom	254,r3,r4,r3
     b6c:	10c00115 	stw	r3,4(r2)

         Fout[m].r -= scratch[0].i;
     b70:	e0bfec17 	ldw	r2,-80(fp)
     b74:	100490fa 	slli	r2,r2,3
     b78:	e0ffef17 	ldw	r3,-68(fp)
     b7c:	1885883a 	add	r2,r3,r2
     b80:	11000017 	ldw	r4,0(r2)
     b84:	e0fff317 	ldw	r3,-52(fp)
     b88:	e0bfec17 	ldw	r2,-80(fp)
     b8c:	100490fa 	slli	r2,r2,3
     b90:	e17fef17 	ldw	r5,-68(fp)
     b94:	2885883a 	add	r2,r5,r2
     b98:	20c7ffb2 	custom	254,r3,r4,r3
     b9c:	10c00015 	stw	r3,0(r2)
         Fout[m].i += scratch[0].r;
     ba0:	e0bfec17 	ldw	r2,-80(fp)
     ba4:	100490fa 	slli	r2,r2,3
     ba8:	e0ffef17 	ldw	r3,-68(fp)
     bac:	1885883a 	add	r2,r3,r2
     bb0:	11000117 	ldw	r4,4(r2)
     bb4:	e0fff217 	ldw	r3,-56(fp)
     bb8:	e0bfec17 	ldw	r2,-80(fp)
     bbc:	100490fa 	slli	r2,r2,3
     bc0:	e17fef17 	ldw	r5,-68(fp)
     bc4:	2885883a 	add	r2,r5,r2
     bc8:	20c7ff72 	custom	253,r3,r4,r3
     bcc:	10c00115 	stw	r3,4(r2)

         ++Fout;
     bd0:	e0bfef17 	ldw	r2,-68(fp)
     bd4:	10800204 	addi	r2,r2,8
     bd8:	e0bfef15 	stw	r2,-68(fp)
     }while(--k);
     bdc:	e0bfff17 	ldw	r2,-4(fp)
     be0:	10bfffc4 	addi	r2,r2,-1
     be4:	e0bfff15 	stw	r2,-4(fp)
     be8:	e0bfff17 	ldw	r2,-4(fp)
     bec:	103f3c1e 	bne	r2,zero,8e0 <kf_bfly3+0x74>
}
     bf0:	0001883a 	nop
     bf4:	0001883a 	nop
     bf8:	e037883a 	mov	sp,fp
     bfc:	dfc00117 	ldw	ra,4(sp)
     c00:	df000017 	ldw	fp,0(sp)
     c04:	dec00204 	addi	sp,sp,8
     c08:	f800283a 	ret

00000c0c <kf_bfly5>:
        kiss_fft_cpx * Fout,
        const size_t fstride,
        const kiss_fft_cfg st,
        int m
        )
{
     c0c:	deffd204 	addi	sp,sp,-184
     c10:	dfc02d15 	stw	ra,180(sp)
     c14:	df002c15 	stw	fp,176(sp)
     c18:	dc402b15 	stw	r17,172(sp)
     c1c:	dc002a15 	stw	r16,168(sp)
     c20:	df002c04 	addi	fp,sp,176
     c24:	e13fd715 	stw	r4,-164(fp)
     c28:	e17fd615 	stw	r5,-168(fp)
     c2c:	e1bfd515 	stw	r6,-172(fp)
     c30:	e1ffd415 	stw	r7,-176(fp)
    kiss_fft_cpx *Fout0,*Fout1,*Fout2,*Fout3,*Fout4;
    int u;
    kiss_fft_cpx scratch[13];
    kiss_fft_cpx * twiddles = st->twiddles;
     c34:	e0bfd517 	ldw	r2,-172(fp)
     c38:	10804204 	addi	r2,r2,264
     c3c:	e0bff715 	stw	r2,-36(fp)
    kiss_fft_cpx *tw;
    kiss_fft_cpx ya,yb;
    ya = twiddles[fstride*m];
     c40:	e0bfd417 	ldw	r2,-176(fp)
     c44:	e17fd617 	ldw	r5,-168(fp)
     c48:	1009883a 	mov	r4,r2
     c4c:	000714c0 	call	714c <__mulsi3>
     c50:	100490fa 	slli	r2,r2,3
     c54:	e0fff717 	ldw	r3,-36(fp)
     c58:	1885883a 	add	r2,r3,r2
     c5c:	10c00017 	ldw	r3,0(r2)
     c60:	e0ffda15 	stw	r3,-152(fp)
     c64:	10800117 	ldw	r2,4(r2)
     c68:	e0bfdb15 	stw	r2,-148(fp)
    yb = twiddles[fstride*2*m];
     c6c:	e0bfd417 	ldw	r2,-176(fp)
     c70:	e17fd617 	ldw	r5,-168(fp)
     c74:	1009883a 	mov	r4,r2
     c78:	000714c0 	call	714c <__mulsi3>
     c7c:	1004913a 	slli	r2,r2,4
     c80:	e0fff717 	ldw	r3,-36(fp)
     c84:	1885883a 	add	r2,r3,r2
     c88:	10c00017 	ldw	r3,0(r2)
     c8c:	e0ffd815 	stw	r3,-160(fp)
     c90:	10800117 	ldw	r2,4(r2)
     c94:	e0bfd915 	stw	r2,-156(fp)

    Fout0=Fout;
     c98:	e0bfd717 	ldw	r2,-164(fp)
     c9c:	e0bffd15 	stw	r2,-12(fp)
    Fout1=Fout0+m;
     ca0:	e0bfd417 	ldw	r2,-176(fp)
     ca4:	100490fa 	slli	r2,r2,3
     ca8:	e0fffd17 	ldw	r3,-12(fp)
     cac:	1885883a 	add	r2,r3,r2
     cb0:	e0bffc15 	stw	r2,-16(fp)
    Fout2=Fout0+2*m;
     cb4:	e0bfd417 	ldw	r2,-176(fp)
     cb8:	1004913a 	slli	r2,r2,4
     cbc:	e0fffd17 	ldw	r3,-12(fp)
     cc0:	1885883a 	add	r2,r3,r2
     cc4:	e0bffb15 	stw	r2,-20(fp)
    Fout3=Fout0+3*m;
     cc8:	e0ffd417 	ldw	r3,-176(fp)
     ccc:	1805883a 	mov	r2,r3
     cd0:	1085883a 	add	r2,r2,r2
     cd4:	10c5883a 	add	r2,r2,r3
     cd8:	100490fa 	slli	r2,r2,3
     cdc:	1007883a 	mov	r3,r2
     ce0:	e0bffd17 	ldw	r2,-12(fp)
     ce4:	10c5883a 	add	r2,r2,r3
     ce8:	e0bffa15 	stw	r2,-24(fp)
    Fout4=Fout0+4*m;
     cec:	e0bfd417 	ldw	r2,-176(fp)
     cf0:	1004917a 	slli	r2,r2,5
     cf4:	e0fffd17 	ldw	r3,-12(fp)
     cf8:	1885883a 	add	r2,r3,r2
     cfc:	e0bff915 	stw	r2,-28(fp)

    tw=st->twiddles;
     d00:	e0bfd517 	ldw	r2,-172(fp)
     d04:	10804204 	addi	r2,r2,264
     d08:	e0bff615 	stw	r2,-40(fp)
    for ( u=0; u<m; ++u ) {
     d0c:	e03ff815 	stw	zero,-32(fp)
     d10:	00018c06 	br	1344 <kf_bfly5+0x738>
        C_FIXDIV( *Fout0,5); C_FIXDIV( *Fout1,5); C_FIXDIV( *Fout2,5); C_FIXDIV( *Fout3,5); C_FIXDIV( *Fout4,5);
        scratch[0] = *Fout0;
     d14:	e0bffd17 	ldw	r2,-12(fp)
     d18:	10c00017 	ldw	r3,0(r2)
     d1c:	e0ffdc15 	stw	r3,-144(fp)
     d20:	10800117 	ldw	r2,4(r2)
     d24:	e0bfdd15 	stw	r2,-140(fp)

        C_MUL(scratch[1] ,*Fout1, tw[u*fstride]);
     d28:	e0bffc17 	ldw	r2,-16(fp)
     d2c:	14000017 	ldw	r16,0(r2)
     d30:	e0bff817 	ldw	r2,-32(fp)
     d34:	e17fd617 	ldw	r5,-168(fp)
     d38:	1009883a 	mov	r4,r2
     d3c:	000714c0 	call	714c <__mulsi3>
     d40:	100490fa 	slli	r2,r2,3
     d44:	e0fff617 	ldw	r3,-40(fp)
     d48:	1887883a 	add	r3,r3,r2
     d4c:	18800017 	ldw	r2,0(r3)
     d50:	80a1ff32 	custom	252,r16,r16,r2
     d54:	e0bffc17 	ldw	r2,-16(fp)
     d58:	14400117 	ldw	r17,4(r2)
     d5c:	e0bff817 	ldw	r2,-32(fp)
     d60:	e17fd617 	ldw	r5,-168(fp)
     d64:	1009883a 	mov	r4,r2
     d68:	000714c0 	call	714c <__mulsi3>
     d6c:	100490fa 	slli	r2,r2,3
     d70:	e0fff617 	ldw	r3,-40(fp)
     d74:	1887883a 	add	r3,r3,r2
     d78:	18800117 	ldw	r2,4(r3)
     d7c:	8885ff32 	custom	252,r2,r17,r2
     d80:	8085ffb2 	custom	254,r2,r16,r2
     d84:	e0bfde15 	stw	r2,-136(fp)
     d88:	e0bffc17 	ldw	r2,-16(fp)
     d8c:	14000017 	ldw	r16,0(r2)
     d90:	e0bff817 	ldw	r2,-32(fp)
     d94:	e17fd617 	ldw	r5,-168(fp)
     d98:	1009883a 	mov	r4,r2
     d9c:	000714c0 	call	714c <__mulsi3>
     da0:	100490fa 	slli	r2,r2,3
     da4:	e0fff617 	ldw	r3,-40(fp)
     da8:	1887883a 	add	r3,r3,r2
     dac:	18800117 	ldw	r2,4(r3)
     db0:	80a1ff32 	custom	252,r16,r16,r2
     db4:	e0bffc17 	ldw	r2,-16(fp)
     db8:	14400117 	ldw	r17,4(r2)
     dbc:	e0bff817 	ldw	r2,-32(fp)
     dc0:	e17fd617 	ldw	r5,-168(fp)
     dc4:	1009883a 	mov	r4,r2
     dc8:	000714c0 	call	714c <__mulsi3>
     dcc:	100490fa 	slli	r2,r2,3
     dd0:	e0fff617 	ldw	r3,-40(fp)
     dd4:	1887883a 	add	r3,r3,r2
     dd8:	18800017 	ldw	r2,0(r3)
     ddc:	8885ff32 	custom	252,r2,r17,r2
     de0:	8085ff72 	custom	253,r2,r16,r2
     de4:	e0bfdf15 	stw	r2,-132(fp)
        C_MUL(scratch[2] ,*Fout2, tw[2*u*fstride]);
     de8:	e0bffb17 	ldw	r2,-20(fp)
     dec:	14000017 	ldw	r16,0(r2)
     df0:	e0bff817 	ldw	r2,-32(fp)
     df4:	e17fd617 	ldw	r5,-168(fp)
     df8:	1009883a 	mov	r4,r2
     dfc:	000714c0 	call	714c <__mulsi3>
     e00:	1004913a 	slli	r2,r2,4
     e04:	e0fff617 	ldw	r3,-40(fp)
     e08:	1887883a 	add	r3,r3,r2
     e0c:	18800017 	ldw	r2,0(r3)
     e10:	80a1ff32 	custom	252,r16,r16,r2
     e14:	e0bffb17 	ldw	r2,-20(fp)
     e18:	14400117 	ldw	r17,4(r2)
     e1c:	e0bff817 	ldw	r2,-32(fp)
     e20:	e17fd617 	ldw	r5,-168(fp)
     e24:	1009883a 	mov	r4,r2
     e28:	000714c0 	call	714c <__mulsi3>
     e2c:	1004913a 	slli	r2,r2,4
     e30:	e0fff617 	ldw	r3,-40(fp)
     e34:	1887883a 	add	r3,r3,r2
     e38:	18800117 	ldw	r2,4(r3)
     e3c:	8885ff32 	custom	252,r2,r17,r2
     e40:	8085ffb2 	custom	254,r2,r16,r2
     e44:	e0bfe015 	stw	r2,-128(fp)
     e48:	e0bffb17 	ldw	r2,-20(fp)
     e4c:	14000017 	ldw	r16,0(r2)
     e50:	e0bff817 	ldw	r2,-32(fp)
     e54:	e17fd617 	ldw	r5,-168(fp)
     e58:	1009883a 	mov	r4,r2
     e5c:	000714c0 	call	714c <__mulsi3>
     e60:	1004913a 	slli	r2,r2,4
     e64:	e0fff617 	ldw	r3,-40(fp)
     e68:	1887883a 	add	r3,r3,r2
     e6c:	18800117 	ldw	r2,4(r3)
     e70:	80a1ff32 	custom	252,r16,r16,r2
     e74:	e0bffb17 	ldw	r2,-20(fp)
     e78:	14400117 	ldw	r17,4(r2)
     e7c:	e0bff817 	ldw	r2,-32(fp)
     e80:	e17fd617 	ldw	r5,-168(fp)
     e84:	1009883a 	mov	r4,r2
     e88:	000714c0 	call	714c <__mulsi3>
     e8c:	1004913a 	slli	r2,r2,4
     e90:	e0fff617 	ldw	r3,-40(fp)
     e94:	1887883a 	add	r3,r3,r2
     e98:	18800017 	ldw	r2,0(r3)
     e9c:	8885ff32 	custom	252,r2,r17,r2
     ea0:	8085ff72 	custom	253,r2,r16,r2
     ea4:	e0bfe115 	stw	r2,-124(fp)
        C_MUL(scratch[3] ,*Fout3, tw[3*u*fstride]);
     ea8:	e0bffa17 	ldw	r2,-24(fp)
     eac:	14000017 	ldw	r16,0(r2)
     eb0:	e0bff817 	ldw	r2,-32(fp)
     eb4:	e17fd617 	ldw	r5,-168(fp)
     eb8:	1009883a 	mov	r4,r2
     ebc:	000714c0 	call	714c <__mulsi3>
     ec0:	1007883a 	mov	r3,r2
     ec4:	1805883a 	mov	r2,r3
     ec8:	1085883a 	add	r2,r2,r2
     ecc:	10c5883a 	add	r2,r2,r3
     ed0:	100490fa 	slli	r2,r2,3
     ed4:	1007883a 	mov	r3,r2
     ed8:	e0bff617 	ldw	r2,-40(fp)
     edc:	10c7883a 	add	r3,r2,r3
     ee0:	18800017 	ldw	r2,0(r3)
     ee4:	80a1ff32 	custom	252,r16,r16,r2
     ee8:	e0bffa17 	ldw	r2,-24(fp)
     eec:	14400117 	ldw	r17,4(r2)
     ef0:	e0bff817 	ldw	r2,-32(fp)
     ef4:	e17fd617 	ldw	r5,-168(fp)
     ef8:	1009883a 	mov	r4,r2
     efc:	000714c0 	call	714c <__mulsi3>
     f00:	1007883a 	mov	r3,r2
     f04:	1805883a 	mov	r2,r3
     f08:	1085883a 	add	r2,r2,r2
     f0c:	10c5883a 	add	r2,r2,r3
     f10:	100490fa 	slli	r2,r2,3
     f14:	1007883a 	mov	r3,r2
     f18:	e0bff617 	ldw	r2,-40(fp)
     f1c:	10c7883a 	add	r3,r2,r3
     f20:	18800117 	ldw	r2,4(r3)
     f24:	8885ff32 	custom	252,r2,r17,r2
     f28:	8085ffb2 	custom	254,r2,r16,r2
     f2c:	e0bfe215 	stw	r2,-120(fp)
     f30:	e0bffa17 	ldw	r2,-24(fp)
     f34:	14000017 	ldw	r16,0(r2)
     f38:	e0bff817 	ldw	r2,-32(fp)
     f3c:	e17fd617 	ldw	r5,-168(fp)
     f40:	1009883a 	mov	r4,r2
     f44:	000714c0 	call	714c <__mulsi3>
     f48:	1007883a 	mov	r3,r2
     f4c:	1805883a 	mov	r2,r3
     f50:	1085883a 	add	r2,r2,r2
     f54:	10c5883a 	add	r2,r2,r3
     f58:	100490fa 	slli	r2,r2,3
     f5c:	1007883a 	mov	r3,r2
     f60:	e0bff617 	ldw	r2,-40(fp)
     f64:	10c7883a 	add	r3,r2,r3
     f68:	18800117 	ldw	r2,4(r3)
     f6c:	80a1ff32 	custom	252,r16,r16,r2
     f70:	e0bffa17 	ldw	r2,-24(fp)
     f74:	14400117 	ldw	r17,4(r2)
     f78:	e0bff817 	ldw	r2,-32(fp)
     f7c:	e17fd617 	ldw	r5,-168(fp)
     f80:	1009883a 	mov	r4,r2
     f84:	000714c0 	call	714c <__mulsi3>
     f88:	1007883a 	mov	r3,r2
     f8c:	1805883a 	mov	r2,r3
     f90:	1085883a 	add	r2,r2,r2
     f94:	10c5883a 	add	r2,r2,r3
     f98:	100490fa 	slli	r2,r2,3
     f9c:	1007883a 	mov	r3,r2
     fa0:	e0bff617 	ldw	r2,-40(fp)
     fa4:	10c7883a 	add	r3,r2,r3
     fa8:	18800017 	ldw	r2,0(r3)
     fac:	8885ff32 	custom	252,r2,r17,r2
     fb0:	8085ff72 	custom	253,r2,r16,r2
     fb4:	e0bfe315 	stw	r2,-116(fp)
        C_MUL(scratch[4] ,*Fout4, tw[4*u*fstride]);
     fb8:	e0bff917 	ldw	r2,-28(fp)
     fbc:	14000017 	ldw	r16,0(r2)
     fc0:	e0bff817 	ldw	r2,-32(fp)
     fc4:	e17fd617 	ldw	r5,-168(fp)
     fc8:	1009883a 	mov	r4,r2
     fcc:	000714c0 	call	714c <__mulsi3>
     fd0:	1004917a 	slli	r2,r2,5
     fd4:	e0fff617 	ldw	r3,-40(fp)
     fd8:	1887883a 	add	r3,r3,r2
     fdc:	18800017 	ldw	r2,0(r3)
     fe0:	80a1ff32 	custom	252,r16,r16,r2
     fe4:	e0bff917 	ldw	r2,-28(fp)
     fe8:	14400117 	ldw	r17,4(r2)
     fec:	e0bff817 	ldw	r2,-32(fp)
     ff0:	e17fd617 	ldw	r5,-168(fp)
     ff4:	1009883a 	mov	r4,r2
     ff8:	000714c0 	call	714c <__mulsi3>
     ffc:	1004917a 	slli	r2,r2,5
    1000:	e0fff617 	ldw	r3,-40(fp)
    1004:	1887883a 	add	r3,r3,r2
    1008:	18800117 	ldw	r2,4(r3)
    100c:	8885ff32 	custom	252,r2,r17,r2
    1010:	8085ffb2 	custom	254,r2,r16,r2
    1014:	e0bfe415 	stw	r2,-112(fp)
    1018:	e0bff917 	ldw	r2,-28(fp)
    101c:	14000017 	ldw	r16,0(r2)
    1020:	e0bff817 	ldw	r2,-32(fp)
    1024:	e17fd617 	ldw	r5,-168(fp)
    1028:	1009883a 	mov	r4,r2
    102c:	000714c0 	call	714c <__mulsi3>
    1030:	1004917a 	slli	r2,r2,5
    1034:	e0fff617 	ldw	r3,-40(fp)
    1038:	1887883a 	add	r3,r3,r2
    103c:	18800117 	ldw	r2,4(r3)
    1040:	80a1ff32 	custom	252,r16,r16,r2
    1044:	e0bff917 	ldw	r2,-28(fp)
    1048:	14400117 	ldw	r17,4(r2)
    104c:	e0bff817 	ldw	r2,-32(fp)
    1050:	e17fd617 	ldw	r5,-168(fp)
    1054:	1009883a 	mov	r4,r2
    1058:	000714c0 	call	714c <__mulsi3>
    105c:	1004917a 	slli	r2,r2,5
    1060:	e0fff617 	ldw	r3,-40(fp)
    1064:	1887883a 	add	r3,r3,r2
    1068:	18800017 	ldw	r2,0(r3)
    106c:	8885ff32 	custom	252,r2,r17,r2
    1070:	8085ff72 	custom	253,r2,r16,r2
    1074:	e0bfe515 	stw	r2,-108(fp)

        C_ADD( scratch[7],scratch[1],scratch[4]);
    1078:	e0ffde17 	ldw	r3,-136(fp)
    107c:	e0bfe417 	ldw	r2,-112(fp)
    1080:	1885ff72 	custom	253,r2,r3,r2
    1084:	e0bfea15 	stw	r2,-88(fp)
    1088:	e0ffdf17 	ldw	r3,-132(fp)
    108c:	e0bfe517 	ldw	r2,-108(fp)
    1090:	1885ff72 	custom	253,r2,r3,r2
    1094:	e0bfeb15 	stw	r2,-84(fp)
        C_SUB( scratch[10],scratch[1],scratch[4]);
    1098:	e0ffde17 	ldw	r3,-136(fp)
    109c:	e0bfe417 	ldw	r2,-112(fp)
    10a0:	1885ffb2 	custom	254,r2,r3,r2
    10a4:	e0bff015 	stw	r2,-64(fp)
    10a8:	e0ffdf17 	ldw	r3,-132(fp)
    10ac:	e0bfe517 	ldw	r2,-108(fp)
    10b0:	1885ffb2 	custom	254,r2,r3,r2
    10b4:	e0bff115 	stw	r2,-60(fp)
        C_ADD( scratch[8],scratch[2],scratch[3]);
    10b8:	e0ffe017 	ldw	r3,-128(fp)
    10bc:	e0bfe217 	ldw	r2,-120(fp)
    10c0:	1885ff72 	custom	253,r2,r3,r2
    10c4:	e0bfec15 	stw	r2,-80(fp)
    10c8:	e0ffe117 	ldw	r3,-124(fp)
    10cc:	e0bfe317 	ldw	r2,-116(fp)
    10d0:	1885ff72 	custom	253,r2,r3,r2
    10d4:	e0bfed15 	stw	r2,-76(fp)
        C_SUB( scratch[9],scratch[2],scratch[3]);
    10d8:	e0ffe017 	ldw	r3,-128(fp)
    10dc:	e0bfe217 	ldw	r2,-120(fp)
    10e0:	1885ffb2 	custom	254,r2,r3,r2
    10e4:	e0bfee15 	stw	r2,-72(fp)
    10e8:	e0ffe117 	ldw	r3,-124(fp)
    10ec:	e0bfe317 	ldw	r2,-116(fp)
    10f0:	1885ffb2 	custom	254,r2,r3,r2
    10f4:	e0bfef15 	stw	r2,-68(fp)

        Fout0->r += scratch[7].r + scratch[8].r;
    10f8:	e0bffd17 	ldw	r2,-12(fp)
    10fc:	10c00017 	ldw	r3,0(r2)
    1100:	e13fea17 	ldw	r4,-88(fp)
    1104:	e0bfec17 	ldw	r2,-80(fp)
    1108:	2085ff72 	custom	253,r2,r4,r2
    110c:	1887ff72 	custom	253,r3,r3,r2
    1110:	e0bffd17 	ldw	r2,-12(fp)
    1114:	10c00015 	stw	r3,0(r2)
        Fout0->i += scratch[7].i + scratch[8].i;
    1118:	e0bffd17 	ldw	r2,-12(fp)
    111c:	10c00117 	ldw	r3,4(r2)
    1120:	e13feb17 	ldw	r4,-84(fp)
    1124:	e0bfed17 	ldw	r2,-76(fp)
    1128:	2085ff72 	custom	253,r2,r4,r2
    112c:	1887ff72 	custom	253,r3,r3,r2
    1130:	e0bffd17 	ldw	r2,-12(fp)
    1134:	10c00115 	stw	r3,4(r2)

        scratch[5].r = scratch[0].r + S_MUL(scratch[7].r,ya.r) + S_MUL(scratch[8].r,yb.r);
    1138:	e0ffdc17 	ldw	r3,-144(fp)
    113c:	e13fea17 	ldw	r4,-88(fp)
    1140:	e0bfda17 	ldw	r2,-152(fp)
    1144:	2085ff32 	custom	252,r2,r4,r2
    1148:	1887ff72 	custom	253,r3,r3,r2
    114c:	e13fec17 	ldw	r4,-80(fp)
    1150:	e0bfd817 	ldw	r2,-160(fp)
    1154:	2085ff32 	custom	252,r2,r4,r2
    1158:	1885ff72 	custom	253,r2,r3,r2
    115c:	e0bfe615 	stw	r2,-104(fp)
        scratch[5].i = scratch[0].i + S_MUL(scratch[7].i,ya.r) + S_MUL(scratch[8].i,yb.r);
    1160:	e0ffdd17 	ldw	r3,-140(fp)
    1164:	e13feb17 	ldw	r4,-84(fp)
    1168:	e0bfda17 	ldw	r2,-152(fp)
    116c:	2085ff32 	custom	252,r2,r4,r2
    1170:	1887ff72 	custom	253,r3,r3,r2
    1174:	e13fed17 	ldw	r4,-76(fp)
    1178:	e0bfd817 	ldw	r2,-160(fp)
    117c:	2085ff32 	custom	252,r2,r4,r2
    1180:	1885ff72 	custom	253,r2,r3,r2
    1184:	e0bfe715 	stw	r2,-100(fp)

        scratch[6].r =  S_MUL(scratch[10].i,ya.i) + S_MUL(scratch[9].i,yb.i);
    1188:	e0fff117 	ldw	r3,-60(fp)
    118c:	e0bfdb17 	ldw	r2,-148(fp)
    1190:	1887ff32 	custom	252,r3,r3,r2
    1194:	e13fef17 	ldw	r4,-68(fp)
    1198:	e0bfd917 	ldw	r2,-156(fp)
    119c:	2085ff32 	custom	252,r2,r4,r2
    11a0:	1885ff72 	custom	253,r2,r3,r2
    11a4:	e0bfe815 	stw	r2,-96(fp)
        scratch[6].i = -S_MUL(scratch[10].r,ya.i) - S_MUL(scratch[9].r,yb.i);
    11a8:	e0fff017 	ldw	r3,-64(fp)
    11ac:	e0bfdb17 	ldw	r2,-148(fp)
    11b0:	1885ff32 	custom	252,r2,r3,r2
    11b4:	10e0003c 	xorhi	r3,r2,32768
    11b8:	e13fee17 	ldw	r4,-72(fp)
    11bc:	e0bfd917 	ldw	r2,-156(fp)
    11c0:	2085ff32 	custom	252,r2,r4,r2
    11c4:	1885ffb2 	custom	254,r2,r3,r2
    11c8:	e0bfe915 	stw	r2,-92(fp)

        C_SUB(*Fout1,scratch[5],scratch[6]);
    11cc:	e0ffe617 	ldw	r3,-104(fp)
    11d0:	e0bfe817 	ldw	r2,-96(fp)
    11d4:	1887ffb2 	custom	254,r3,r3,r2
    11d8:	e0bffc17 	ldw	r2,-16(fp)
    11dc:	10c00015 	stw	r3,0(r2)
    11e0:	e0ffe717 	ldw	r3,-100(fp)
    11e4:	e0bfe917 	ldw	r2,-92(fp)
    11e8:	1887ffb2 	custom	254,r3,r3,r2
    11ec:	e0bffc17 	ldw	r2,-16(fp)
    11f0:	10c00115 	stw	r3,4(r2)
        C_ADD(*Fout4,scratch[5],scratch[6]);
    11f4:	e0ffe617 	ldw	r3,-104(fp)
    11f8:	e0bfe817 	ldw	r2,-96(fp)
    11fc:	1887ff72 	custom	253,r3,r3,r2
    1200:	e0bff917 	ldw	r2,-28(fp)
    1204:	10c00015 	stw	r3,0(r2)
    1208:	e0ffe717 	ldw	r3,-100(fp)
    120c:	e0bfe917 	ldw	r2,-92(fp)
    1210:	1887ff72 	custom	253,r3,r3,r2
    1214:	e0bff917 	ldw	r2,-28(fp)
    1218:	10c00115 	stw	r3,4(r2)

        scratch[11].r = scratch[0].r + S_MUL(scratch[7].r,yb.r) + S_MUL(scratch[8].r,ya.r);
    121c:	e0ffdc17 	ldw	r3,-144(fp)
    1220:	e13fea17 	ldw	r4,-88(fp)
    1224:	e0bfd817 	ldw	r2,-160(fp)
    1228:	2085ff32 	custom	252,r2,r4,r2
    122c:	1887ff72 	custom	253,r3,r3,r2
    1230:	e13fec17 	ldw	r4,-80(fp)
    1234:	e0bfda17 	ldw	r2,-152(fp)
    1238:	2085ff32 	custom	252,r2,r4,r2
    123c:	1885ff72 	custom	253,r2,r3,r2
    1240:	e0bff215 	stw	r2,-56(fp)
        scratch[11].i = scratch[0].i + S_MUL(scratch[7].i,yb.r) + S_MUL(scratch[8].i,ya.r);
    1244:	e0ffdd17 	ldw	r3,-140(fp)
    1248:	e13feb17 	ldw	r4,-84(fp)
    124c:	e0bfd817 	ldw	r2,-160(fp)
    1250:	2085ff32 	custom	252,r2,r4,r2
    1254:	1887ff72 	custom	253,r3,r3,r2
    1258:	e13fed17 	ldw	r4,-76(fp)
    125c:	e0bfda17 	ldw	r2,-152(fp)
    1260:	2085ff32 	custom	252,r2,r4,r2
    1264:	1885ff72 	custom	253,r2,r3,r2
    1268:	e0bff315 	stw	r2,-52(fp)
        scratch[12].r = - S_MUL(scratch[10].i,yb.i) + S_MUL(scratch[9].i,ya.i);
    126c:	e0ffef17 	ldw	r3,-68(fp)
    1270:	e0bfdb17 	ldw	r2,-148(fp)
    1274:	1887ff32 	custom	252,r3,r3,r2
    1278:	e13ff117 	ldw	r4,-60(fp)
    127c:	e0bfd917 	ldw	r2,-156(fp)
    1280:	2085ff32 	custom	252,r2,r4,r2
    1284:	1885ffb2 	custom	254,r2,r3,r2
    1288:	e0bff415 	stw	r2,-48(fp)
        scratch[12].i = S_MUL(scratch[10].r,yb.i) - S_MUL(scratch[9].r,ya.i);
    128c:	e0fff017 	ldw	r3,-64(fp)
    1290:	e0bfd917 	ldw	r2,-156(fp)
    1294:	1887ff32 	custom	252,r3,r3,r2
    1298:	e13fee17 	ldw	r4,-72(fp)
    129c:	e0bfdb17 	ldw	r2,-148(fp)
    12a0:	2085ff32 	custom	252,r2,r4,r2
    12a4:	1885ffb2 	custom	254,r2,r3,r2
    12a8:	e0bff515 	stw	r2,-44(fp)

        C_ADD(*Fout2,scratch[11],scratch[12]);
    12ac:	e0fff217 	ldw	r3,-56(fp)
    12b0:	e0bff417 	ldw	r2,-48(fp)
    12b4:	1887ff72 	custom	253,r3,r3,r2
    12b8:	e0bffb17 	ldw	r2,-20(fp)
    12bc:	10c00015 	stw	r3,0(r2)
    12c0:	e0fff317 	ldw	r3,-52(fp)
    12c4:	e0bff517 	ldw	r2,-44(fp)
    12c8:	1887ff72 	custom	253,r3,r3,r2
    12cc:	e0bffb17 	ldw	r2,-20(fp)
    12d0:	10c00115 	stw	r3,4(r2)
        C_SUB(*Fout3,scratch[11],scratch[12]);
    12d4:	e0fff217 	ldw	r3,-56(fp)
    12d8:	e0bff417 	ldw	r2,-48(fp)
    12dc:	1887ffb2 	custom	254,r3,r3,r2
    12e0:	e0bffa17 	ldw	r2,-24(fp)
    12e4:	10c00015 	stw	r3,0(r2)
    12e8:	e0fff317 	ldw	r3,-52(fp)
    12ec:	e0bff517 	ldw	r2,-44(fp)
    12f0:	1887ffb2 	custom	254,r3,r3,r2
    12f4:	e0bffa17 	ldw	r2,-24(fp)
    12f8:	10c00115 	stw	r3,4(r2)

        ++Fout0;++Fout1;++Fout2;++Fout3;++Fout4;
    12fc:	e0bffd17 	ldw	r2,-12(fp)
    1300:	10800204 	addi	r2,r2,8
    1304:	e0bffd15 	stw	r2,-12(fp)
    1308:	e0bffc17 	ldw	r2,-16(fp)
    130c:	10800204 	addi	r2,r2,8
    1310:	e0bffc15 	stw	r2,-16(fp)
    1314:	e0bffb17 	ldw	r2,-20(fp)
    1318:	10800204 	addi	r2,r2,8
    131c:	e0bffb15 	stw	r2,-20(fp)
    1320:	e0bffa17 	ldw	r2,-24(fp)
    1324:	10800204 	addi	r2,r2,8
    1328:	e0bffa15 	stw	r2,-24(fp)
    132c:	e0bff917 	ldw	r2,-28(fp)
    1330:	10800204 	addi	r2,r2,8
    1334:	e0bff915 	stw	r2,-28(fp)
    for ( u=0; u<m; ++u ) {
    1338:	e0bff817 	ldw	r2,-32(fp)
    133c:	10800044 	addi	r2,r2,1
    1340:	e0bff815 	stw	r2,-32(fp)
    1344:	e0fff817 	ldw	r3,-32(fp)
    1348:	e0bfd417 	ldw	r2,-176(fp)
    134c:	18be7116 	blt	r3,r2,d14 <kf_bfly5+0x108>
    }
}
    1350:	0001883a 	nop
    1354:	0001883a 	nop
    1358:	e6fffe04 	addi	sp,fp,-8
    135c:	dfc00317 	ldw	ra,12(sp)
    1360:	df000217 	ldw	fp,8(sp)
    1364:	dc400117 	ldw	r17,4(sp)
    1368:	dc000017 	ldw	r16,0(sp)
    136c:	dec00404 	addi	sp,sp,16
    1370:	f800283a 	ret

00001374 <kf_bfly_generic>:
        const size_t fstride,
        const kiss_fft_cfg st,
        int m,
        int p
        )
{
    1374:	defff004 	addi	sp,sp,-64
    1378:	dfc00f15 	stw	ra,60(sp)
    137c:	df000e15 	stw	fp,56(sp)
    1380:	df000e04 	addi	fp,sp,56
    1384:	e13ff515 	stw	r4,-44(fp)
    1388:	e17ff415 	stw	r5,-48(fp)
    138c:	e1bff315 	stw	r6,-52(fp)
    1390:	e1fff215 	stw	r7,-56(fp)
    int u,k,q1,q;
    kiss_fft_cpx * twiddles = st->twiddles;
    1394:	e0bff317 	ldw	r2,-52(fp)
    1398:	10804204 	addi	r2,r2,264
    139c:	e0bffa15 	stw	r2,-24(fp)
    kiss_fft_cpx t;
    int Norig = st->nfft;
    13a0:	e0bff317 	ldw	r2,-52(fp)
    13a4:	10800017 	ldw	r2,0(r2)
    13a8:	e0bff915 	stw	r2,-28(fp)

    kiss_fft_cpx * scratch = (kiss_fft_cpx*)KISS_FFT_TMP_ALLOC(sizeof(kiss_fft_cpx)*p);
    13ac:	e0800217 	ldw	r2,8(fp)
    13b0:	100490fa 	slli	r2,r2,3
    13b4:	1009883a 	mov	r4,r2
    13b8:	0009eb00 	call	9eb0 <malloc>
    13bc:	e0bff815 	stw	r2,-32(fp)

    for ( u=0; u<m; ++u ) {
    13c0:	e03fff15 	stw	zero,-4(fp)
    13c4:	00009506 	br	161c <kf_bfly_generic+0x2a8>
        k=u;
    13c8:	e0bfff17 	ldw	r2,-4(fp)
    13cc:	e0bffe15 	stw	r2,-8(fp)
        for ( q1=0 ; q1<p ; ++q1 ) {
    13d0:	e03ffd15 	stw	zero,-12(fp)
    13d4:	00001306 	br	1424 <kf_bfly_generic+0xb0>
            scratch[q1] = Fout[ k  ];
    13d8:	e0bffe17 	ldw	r2,-8(fp)
    13dc:	100490fa 	slli	r2,r2,3
    13e0:	e0fff517 	ldw	r3,-44(fp)
    13e4:	1887883a 	add	r3,r3,r2
    13e8:	e0bffd17 	ldw	r2,-12(fp)
    13ec:	100490fa 	slli	r2,r2,3
    13f0:	e13ff817 	ldw	r4,-32(fp)
    13f4:	2085883a 	add	r2,r4,r2
    13f8:	19000017 	ldw	r4,0(r3)
    13fc:	11000015 	stw	r4,0(r2)
    1400:	18c00117 	ldw	r3,4(r3)
    1404:	10c00115 	stw	r3,4(r2)
            C_FIXDIV(scratch[q1],p);
            k += m;
    1408:	e0fffe17 	ldw	r3,-8(fp)
    140c:	e0bff217 	ldw	r2,-56(fp)
    1410:	1885883a 	add	r2,r3,r2
    1414:	e0bffe15 	stw	r2,-8(fp)
        for ( q1=0 ; q1<p ; ++q1 ) {
    1418:	e0bffd17 	ldw	r2,-12(fp)
    141c:	10800044 	addi	r2,r2,1
    1420:	e0bffd15 	stw	r2,-12(fp)
    1424:	e0fffd17 	ldw	r3,-12(fp)
    1428:	e0800217 	ldw	r2,8(fp)
    142c:	18bfea16 	blt	r3,r2,13d8 <kf_bfly_generic+0x64>
        }

        k=u;
    1430:	e0bfff17 	ldw	r2,-4(fp)
    1434:	e0bffe15 	stw	r2,-8(fp)
        for ( q1=0 ; q1<p ; ++q1 ) {
    1438:	e03ffd15 	stw	zero,-12(fp)
    143c:	00007106 	br	1604 <kf_bfly_generic+0x290>
            int twidx=0;
    1440:	e03ffb15 	stw	zero,-20(fp)
            Fout[ k ] = scratch[0];
    1444:	e0bffe17 	ldw	r2,-8(fp)
    1448:	100490fa 	slli	r2,r2,3
    144c:	e0fff517 	ldw	r3,-44(fp)
    1450:	1885883a 	add	r2,r3,r2
    1454:	e0fff817 	ldw	r3,-32(fp)
    1458:	19000017 	ldw	r4,0(r3)
    145c:	11000015 	stw	r4,0(r2)
    1460:	18c00117 	ldw	r3,4(r3)
    1464:	10c00115 	stw	r3,4(r2)
            for (q=1;q<p;++q ) {
    1468:	00800044 	movi	r2,1
    146c:	e0bffc15 	stw	r2,-16(fp)
    1470:	00005a06 	br	15dc <kf_bfly_generic+0x268>
                twidx += fstride * k;
    1474:	e0bffe17 	ldw	r2,-8(fp)
    1478:	e17ff417 	ldw	r5,-48(fp)
    147c:	1009883a 	mov	r4,r2
    1480:	000714c0 	call	714c <__mulsi3>
    1484:	1007883a 	mov	r3,r2
    1488:	e0bffb17 	ldw	r2,-20(fp)
    148c:	1885883a 	add	r2,r3,r2
    1490:	e0bffb15 	stw	r2,-20(fp)
                if (twidx>=Norig) twidx-=Norig;
    1494:	e0fffb17 	ldw	r3,-20(fp)
    1498:	e0bff917 	ldw	r2,-28(fp)
    149c:	18800416 	blt	r3,r2,14b0 <kf_bfly_generic+0x13c>
    14a0:	e0fffb17 	ldw	r3,-20(fp)
    14a4:	e0bff917 	ldw	r2,-28(fp)
    14a8:	1885c83a 	sub	r2,r3,r2
    14ac:	e0bffb15 	stw	r2,-20(fp)
                C_MUL(t,scratch[q] , twiddles[twidx] );
    14b0:	e0bffc17 	ldw	r2,-16(fp)
    14b4:	100490fa 	slli	r2,r2,3
    14b8:	e0fff817 	ldw	r3,-32(fp)
    14bc:	1885883a 	add	r2,r3,r2
    14c0:	10c00017 	ldw	r3,0(r2)
    14c4:	e0bffb17 	ldw	r2,-20(fp)
    14c8:	100490fa 	slli	r2,r2,3
    14cc:	e13ffa17 	ldw	r4,-24(fp)
    14d0:	2089883a 	add	r4,r4,r2
    14d4:	20800017 	ldw	r2,0(r4)
    14d8:	1887ff32 	custom	252,r3,r3,r2
    14dc:	e0bffc17 	ldw	r2,-16(fp)
    14e0:	100490fa 	slli	r2,r2,3
    14e4:	e13ff817 	ldw	r4,-32(fp)
    14e8:	2085883a 	add	r2,r4,r2
    14ec:	11000117 	ldw	r4,4(r2)
    14f0:	e0bffb17 	ldw	r2,-20(fp)
    14f4:	100490fa 	slli	r2,r2,3
    14f8:	e17ffa17 	ldw	r5,-24(fp)
    14fc:	288b883a 	add	r5,r5,r2
    1500:	28800117 	ldw	r2,4(r5)
    1504:	2085ff32 	custom	252,r2,r4,r2
    1508:	1885ffb2 	custom	254,r2,r3,r2
    150c:	e0bff615 	stw	r2,-40(fp)
    1510:	e0bffc17 	ldw	r2,-16(fp)
    1514:	100490fa 	slli	r2,r2,3
    1518:	e0fff817 	ldw	r3,-32(fp)
    151c:	1885883a 	add	r2,r3,r2
    1520:	10c00017 	ldw	r3,0(r2)
    1524:	e0bffb17 	ldw	r2,-20(fp)
    1528:	100490fa 	slli	r2,r2,3
    152c:	e13ffa17 	ldw	r4,-24(fp)
    1530:	2089883a 	add	r4,r4,r2
    1534:	20800117 	ldw	r2,4(r4)
    1538:	1887ff32 	custom	252,r3,r3,r2
    153c:	e0bffc17 	ldw	r2,-16(fp)
    1540:	100490fa 	slli	r2,r2,3
    1544:	e13ff817 	ldw	r4,-32(fp)
    1548:	2085883a 	add	r2,r4,r2
    154c:	11000117 	ldw	r4,4(r2)
    1550:	e0bffb17 	ldw	r2,-20(fp)
    1554:	100490fa 	slli	r2,r2,3
    1558:	e17ffa17 	ldw	r5,-24(fp)
    155c:	288b883a 	add	r5,r5,r2
    1560:	28800017 	ldw	r2,0(r5)
    1564:	2085ff32 	custom	252,r2,r4,r2
    1568:	1885ff72 	custom	253,r2,r3,r2
    156c:	e0bff715 	stw	r2,-36(fp)
                C_ADDTO( Fout[ k ] ,t);
    1570:	e0bffe17 	ldw	r2,-8(fp)
    1574:	100490fa 	slli	r2,r2,3
    1578:	e0fff517 	ldw	r3,-44(fp)
    157c:	1885883a 	add	r2,r3,r2
    1580:	11000017 	ldw	r4,0(r2)
    1584:	e0fff617 	ldw	r3,-40(fp)
    1588:	e0bffe17 	ldw	r2,-8(fp)
    158c:	100490fa 	slli	r2,r2,3
    1590:	e17ff517 	ldw	r5,-44(fp)
    1594:	2885883a 	add	r2,r5,r2
    1598:	20c7ff72 	custom	253,r3,r4,r3
    159c:	10c00015 	stw	r3,0(r2)
    15a0:	e0bffe17 	ldw	r2,-8(fp)
    15a4:	100490fa 	slli	r2,r2,3
    15a8:	e0fff517 	ldw	r3,-44(fp)
    15ac:	1885883a 	add	r2,r3,r2
    15b0:	11000117 	ldw	r4,4(r2)
    15b4:	e0fff717 	ldw	r3,-36(fp)
    15b8:	e0bffe17 	ldw	r2,-8(fp)
    15bc:	100490fa 	slli	r2,r2,3
    15c0:	e17ff517 	ldw	r5,-44(fp)
    15c4:	2885883a 	add	r2,r5,r2
    15c8:	20c7ff72 	custom	253,r3,r4,r3
    15cc:	10c00115 	stw	r3,4(r2)
            for (q=1;q<p;++q ) {
    15d0:	e0bffc17 	ldw	r2,-16(fp)
    15d4:	10800044 	addi	r2,r2,1
    15d8:	e0bffc15 	stw	r2,-16(fp)
    15dc:	e0fffc17 	ldw	r3,-16(fp)
    15e0:	e0800217 	ldw	r2,8(fp)
    15e4:	18bfa316 	blt	r3,r2,1474 <kf_bfly_generic+0x100>
            }
            k += m;
    15e8:	e0fffe17 	ldw	r3,-8(fp)
    15ec:	e0bff217 	ldw	r2,-56(fp)
    15f0:	1885883a 	add	r2,r3,r2
    15f4:	e0bffe15 	stw	r2,-8(fp)
        for ( q1=0 ; q1<p ; ++q1 ) {
    15f8:	e0bffd17 	ldw	r2,-12(fp)
    15fc:	10800044 	addi	r2,r2,1
    1600:	e0bffd15 	stw	r2,-12(fp)
    1604:	e0fffd17 	ldw	r3,-12(fp)
    1608:	e0800217 	ldw	r2,8(fp)
    160c:	18bf8c16 	blt	r3,r2,1440 <kf_bfly_generic+0xcc>
    for ( u=0; u<m; ++u ) {
    1610:	e0bfff17 	ldw	r2,-4(fp)
    1614:	10800044 	addi	r2,r2,1
    1618:	e0bfff15 	stw	r2,-4(fp)
    161c:	e0ffff17 	ldw	r3,-4(fp)
    1620:	e0bff217 	ldw	r2,-56(fp)
    1624:	18bf6816 	blt	r3,r2,13c8 <kf_bfly_generic+0x54>
        }
    }
    KISS_FFT_TMP_FREE(scratch);
    1628:	e13ff817 	ldw	r4,-32(fp)
    162c:	0009ec00 	call	9ec0 <free>
}
    1630:	0001883a 	nop
    1634:	e037883a 	mov	sp,fp
    1638:	dfc00117 	ldw	ra,4(sp)
    163c:	df000017 	ldw	fp,0(sp)
    1640:	dec00204 	addi	sp,sp,8
    1644:	f800283a 	ret

00001648 <kf_work>:
        const size_t fstride,
        int in_stride,
        int * factors,
        const kiss_fft_cfg st
        )
{
    1648:	defff404 	addi	sp,sp,-48
    164c:	dfc00b15 	stw	ra,44(sp)
    1650:	df000a15 	stw	fp,40(sp)
    1654:	df000a04 	addi	fp,sp,40
    1658:	e13ffb15 	stw	r4,-20(fp)
    165c:	e17ffa15 	stw	r5,-24(fp)
    1660:	e1bff915 	stw	r6,-28(fp)
    1664:	e1fff815 	stw	r7,-32(fp)
    kiss_fft_cpx * Fout_beg=Fout;
    1668:	e0bffb17 	ldw	r2,-20(fp)
    166c:	e0bfff15 	stw	r2,-4(fp)
    const int p=*factors++; /* the radix  */
    1670:	e0800217 	ldw	r2,8(fp)
    1674:	10c00104 	addi	r3,r2,4
    1678:	e0c00215 	stw	r3,8(fp)
    167c:	10800017 	ldw	r2,0(r2)
    1680:	e0bffe15 	stw	r2,-8(fp)
    const int m=*factors++; /* stage's fft length/p */
    1684:	e0800217 	ldw	r2,8(fp)
    1688:	10c00104 	addi	r3,r2,4
    168c:	e0c00215 	stw	r3,8(fp)
    1690:	10800017 	ldw	r2,0(r2)
    1694:	e0bffd15 	stw	r2,-12(fp)
    const kiss_fft_cpx * Fout_end = Fout + p*m;
    1698:	e17ffd17 	ldw	r5,-12(fp)
    169c:	e13ffe17 	ldw	r4,-8(fp)
    16a0:	000714c0 	call	714c <__mulsi3>
    16a4:	100490fa 	slli	r2,r2,3
    16a8:	e0fffb17 	ldw	r3,-20(fp)
    16ac:	1885883a 	add	r2,r3,r2
    16b0:	e0bffc15 	stw	r2,-16(fp)
        }
        return;
    }
#endif

    if (m==1) {
    16b4:	e0bffd17 	ldw	r2,-12(fp)
    16b8:	10800058 	cmpnei	r2,r2,1
    16bc:	1000151e 	bne	r2,zero,1714 <kf_work+0xcc>
        do{
            *Fout = *f;
    16c0:	e0bffb17 	ldw	r2,-20(fp)
    16c4:	e0fffa17 	ldw	r3,-24(fp)
    16c8:	19000017 	ldw	r4,0(r3)
    16cc:	11000015 	stw	r4,0(r2)
    16d0:	18c00117 	ldw	r3,4(r3)
    16d4:	10c00115 	stw	r3,4(r2)
            f += fstride*in_stride;
    16d8:	e0bff817 	ldw	r2,-32(fp)
    16dc:	e17ff917 	ldw	r5,-28(fp)
    16e0:	1009883a 	mov	r4,r2
    16e4:	000714c0 	call	714c <__mulsi3>
    16e8:	100490fa 	slli	r2,r2,3
    16ec:	e0fffa17 	ldw	r3,-24(fp)
    16f0:	1885883a 	add	r2,r3,r2
    16f4:	e0bffa15 	stw	r2,-24(fp)
        }while(++Fout != Fout_end );
    16f8:	e0bffb17 	ldw	r2,-20(fp)
    16fc:	10800204 	addi	r2,r2,8
    1700:	e0bffb15 	stw	r2,-20(fp)
    1704:	e0fffb17 	ldw	r3,-20(fp)
    1708:	e0bffc17 	ldw	r2,-16(fp)
    170c:	18bfec1e 	bne	r3,r2,16c0 <kf_work+0x78>
    1710:	00001e06 	br	178c <kf_work+0x144>
        do{
            // recursive call:
            // DFT of size m*p performed by doing
            // p instances of smaller DFTs of size m, 
            // each one takes a decimated version of the input
            kf_work( Fout , f, fstride*p, in_stride, factors,st);
    1714:	e0bffe17 	ldw	r2,-8(fp)
    1718:	e17ff917 	ldw	r5,-28(fp)
    171c:	1009883a 	mov	r4,r2
    1720:	000714c0 	call	714c <__mulsi3>
    1724:	1007883a 	mov	r3,r2
    1728:	e0800317 	ldw	r2,12(fp)
    172c:	d8800115 	stw	r2,4(sp)
    1730:	e0800217 	ldw	r2,8(fp)
    1734:	d8800015 	stw	r2,0(sp)
    1738:	e1fff817 	ldw	r7,-32(fp)
    173c:	180d883a 	mov	r6,r3
    1740:	e17ffa17 	ldw	r5,-24(fp)
    1744:	e13ffb17 	ldw	r4,-20(fp)
    1748:	00016480 	call	1648 <kf_work>
            f += fstride*in_stride;
    174c:	e0bff817 	ldw	r2,-32(fp)
    1750:	e17ff917 	ldw	r5,-28(fp)
    1754:	1009883a 	mov	r4,r2
    1758:	000714c0 	call	714c <__mulsi3>
    175c:	100490fa 	slli	r2,r2,3
    1760:	e0fffa17 	ldw	r3,-24(fp)
    1764:	1885883a 	add	r2,r3,r2
    1768:	e0bffa15 	stw	r2,-24(fp)
        }while( (Fout += m) != Fout_end );
    176c:	e0bffd17 	ldw	r2,-12(fp)
    1770:	100490fa 	slli	r2,r2,3
    1774:	e0fffb17 	ldw	r3,-20(fp)
    1778:	1885883a 	add	r2,r3,r2
    177c:	e0bffb15 	stw	r2,-20(fp)
    1780:	e0fffb17 	ldw	r3,-20(fp)
    1784:	e0bffc17 	ldw	r2,-16(fp)
    1788:	18bfe21e 	bne	r3,r2,1714 <kf_work+0xcc>
    }

    Fout=Fout_beg;
    178c:	e0bfff17 	ldw	r2,-4(fp)
    1790:	e0bffb15 	stw	r2,-20(fp)

    // recombine the p smaller DFTs 
    switch (p) {
    1794:	e0bffe17 	ldw	r2,-8(fp)
    1798:	10800160 	cmpeqi	r2,r2,5
    179c:	1000241e 	bne	r2,zero,1830 <kf_work+0x1e8>
    17a0:	e0bffe17 	ldw	r2,-8(fp)
    17a4:	10800188 	cmpgei	r2,r2,6
    17a8:	1000271e 	bne	r2,zero,1848 <kf_work+0x200>
    17ac:	e0bffe17 	ldw	r2,-8(fp)
    17b0:	10800120 	cmpeqi	r2,r2,4
    17b4:	1000171e 	bne	r2,zero,1814 <kf_work+0x1cc>
    17b8:	e0bffe17 	ldw	r2,-8(fp)
    17bc:	10800148 	cmpgei	r2,r2,5
    17c0:	1000211e 	bne	r2,zero,1848 <kf_work+0x200>
    17c4:	e0bffe17 	ldw	r2,-8(fp)
    17c8:	108000a0 	cmpeqi	r2,r2,2
    17cc:	1000041e 	bne	r2,zero,17e0 <kf_work+0x198>
    17d0:	e0bffe17 	ldw	r2,-8(fp)
    17d4:	108000e0 	cmpeqi	r2,r2,3
    17d8:	1000071e 	bne	r2,zero,17f8 <kf_work+0x1b0>
    17dc:	00001a06 	br	1848 <kf_work+0x200>
        case 2: kf_bfly2(Fout,fstride,st,m); break;
    17e0:	e1fffd17 	ldw	r7,-12(fp)
    17e4:	e1800317 	ldw	r6,12(fp)
    17e8:	e17ff917 	ldw	r5,-28(fp)
    17ec:	e13ffb17 	ldw	r4,-20(fp)
    17f0:	00002640 	call	264 <kf_bfly2>
    17f4:	00001c06 	br	1868 <kf_work+0x220>
        case 3: kf_bfly3(Fout,fstride,st,m); break; 
    17f8:	e0bffd17 	ldw	r2,-12(fp)
    17fc:	100f883a 	mov	r7,r2
    1800:	e1800317 	ldw	r6,12(fp)
    1804:	e17ff917 	ldw	r5,-28(fp)
    1808:	e13ffb17 	ldw	r4,-20(fp)
    180c:	000086c0 	call	86c <kf_bfly3>
    1810:	00001506 	br	1868 <kf_work+0x220>
        case 4: kf_bfly4(Fout,fstride,st,m); break;
    1814:	e0bffd17 	ldw	r2,-12(fp)
    1818:	100f883a 	mov	r7,r2
    181c:	e1800317 	ldw	r6,12(fp)
    1820:	e17ff917 	ldw	r5,-28(fp)
    1824:	e13ffb17 	ldw	r4,-20(fp)
    1828:	00003b80 	call	3b8 <kf_bfly4>
    182c:	00000e06 	br	1868 <kf_work+0x220>
        case 5: kf_bfly5(Fout,fstride,st,m); break; 
    1830:	e1fffd17 	ldw	r7,-12(fp)
    1834:	e1800317 	ldw	r6,12(fp)
    1838:	e17ff917 	ldw	r5,-28(fp)
    183c:	e13ffb17 	ldw	r4,-20(fp)
    1840:	0000c0c0 	call	c0c <kf_bfly5>
    1844:	00000806 	br	1868 <kf_work+0x220>
        default: kf_bfly_generic(Fout,fstride,st,m,p); break;
    1848:	e0bffe17 	ldw	r2,-8(fp)
    184c:	d8800015 	stw	r2,0(sp)
    1850:	e1fffd17 	ldw	r7,-12(fp)
    1854:	e1800317 	ldw	r6,12(fp)
    1858:	e17ff917 	ldw	r5,-28(fp)
    185c:	e13ffb17 	ldw	r4,-20(fp)
    1860:	00013740 	call	1374 <kf_bfly_generic>
    1864:	0001883a 	nop
    }
}
    1868:	0001883a 	nop
    186c:	e037883a 	mov	sp,fp
    1870:	dfc00117 	ldw	ra,4(sp)
    1874:	df000017 	ldw	fp,0(sp)
    1878:	dec00204 	addi	sp,sp,8
    187c:	f800283a 	ret

00001880 <kf_factor>:
    where 
    p[i] * m[i] = m[i-1]
    m0 = n                  */
static 
void kf_factor(int n,int * facbuf)
{
    1880:	defff904 	addi	sp,sp,-28
    1884:	dfc00615 	stw	ra,24(sp)
    1888:	df000515 	stw	fp,20(sp)
    188c:	df000504 	addi	fp,sp,20
    1890:	e13ffc15 	stw	r4,-16(fp)
    1894:	e17ffb15 	stw	r5,-20(fp)
    int p=4;
    1898:	00800104 	movi	r2,4
    189c:	e0bfff15 	stw	r2,-4(fp)
    double floor_sqrt;
    floor_sqrt = floor( sqrt((double)n) );
    18a0:	e13ffc17 	ldw	r4,-16(fp)
    18a4:	0009a9c0 	call	9a9c <__floatsidf>
    18a8:	100d883a 	mov	r6,r2
    18ac:	180f883a 	mov	r7,r3
    18b0:	3009883a 	mov	r4,r6
    18b4:	380b883a 	mov	r5,r7
    18b8:	00034b80 	call	34b8 <sqrt>
    18bc:	100d883a 	mov	r6,r2
    18c0:	180f883a 	mov	r7,r3
    18c4:	3009883a 	mov	r4,r6
    18c8:	380b883a 	mov	r5,r7
    18cc:	0002e900 	call	2e90 <floor>
    18d0:	e0bffd15 	stw	r2,-12(fp)
    18d4:	e0fffe15 	stw	r3,-8(fp)

    /*factor out powers of 4, powers of 2, then any remaining primes */
    do {
        while (n % p) {
    18d8:	00001d06 	br	1950 <kf_factor+0xd0>
            switch (p) {
    18dc:	e0bfff17 	ldw	r2,-4(fp)
    18e0:	108000a0 	cmpeqi	r2,r2,2
    18e4:	1000061e 	bne	r2,zero,1900 <kf_factor+0x80>
    18e8:	e0bfff17 	ldw	r2,-4(fp)
    18ec:	10800118 	cmpnei	r2,r2,4
    18f0:	1000061e 	bne	r2,zero,190c <kf_factor+0x8c>
                case 4: p = 2; break;
    18f4:	00800084 	movi	r2,2
    18f8:	e0bfff15 	stw	r2,-4(fp)
    18fc:	00000706 	br	191c <kf_factor+0x9c>
                case 2: p = 3; break;
    1900:	008000c4 	movi	r2,3
    1904:	e0bfff15 	stw	r2,-4(fp)
    1908:	00000406 	br	191c <kf_factor+0x9c>
                default: p += 2; break;
    190c:	e0bfff17 	ldw	r2,-4(fp)
    1910:	10800084 	addi	r2,r2,2
    1914:	e0bfff15 	stw	r2,-4(fp)
    1918:	0001883a 	nop
            }
            if (p > floor_sqrt)
    191c:	e13fff17 	ldw	r4,-4(fp)
    1920:	0009a9c0 	call	9a9c <__floatsidf>
    1924:	1009883a 	mov	r4,r2
    1928:	180b883a 	mov	r5,r3
    192c:	200d883a 	mov	r6,r4
    1930:	280f883a 	mov	r7,r5
    1934:	e13ffd17 	ldw	r4,-12(fp)
    1938:	e17ffe17 	ldw	r5,-8(fp)
    193c:	00088280 	call	8828 <__ledf2>
    1940:	10000116 	blt	r2,zero,1948 <kf_factor+0xc8>
    1944:	00000206 	br	1950 <kf_factor+0xd0>
                p = n;          /* no more factors, skip to end */
    1948:	e0bffc17 	ldw	r2,-16(fp)
    194c:	e0bfff15 	stw	r2,-4(fp)
        while (n % p) {
    1950:	e0bffc17 	ldw	r2,-16(fp)
    1954:	e17fff17 	ldw	r5,-4(fp)
    1958:	1009883a 	mov	r4,r2
    195c:	00070180 	call	7018 <__modsi3>
    1960:	103fde1e 	bne	r2,zero,18dc <kf_factor+0x5c>
        }
        n /= p;
    1964:	e17fff17 	ldw	r5,-4(fp)
    1968:	e13ffc17 	ldw	r4,-16(fp)
    196c:	0006f980 	call	6f98 <__divsi3>
    1970:	e0bffc15 	stw	r2,-16(fp)
        *facbuf++ = p;
    1974:	e0bffb17 	ldw	r2,-20(fp)
    1978:	10c00104 	addi	r3,r2,4
    197c:	e0fffb15 	stw	r3,-20(fp)
    1980:	e0ffff17 	ldw	r3,-4(fp)
    1984:	10c00015 	stw	r3,0(r2)
        *facbuf++ = n;
    1988:	e0bffb17 	ldw	r2,-20(fp)
    198c:	10c00104 	addi	r3,r2,4
    1990:	e0fffb15 	stw	r3,-20(fp)
    1994:	e0fffc17 	ldw	r3,-16(fp)
    1998:	10c00015 	stw	r3,0(r2)
    } while (n > 1);
    199c:	e0bffc17 	ldw	r2,-16(fp)
    19a0:	10800088 	cmpgei	r2,r2,2
    19a4:	103fea1e 	bne	r2,zero,1950 <kf_factor+0xd0>
}
    19a8:	0001883a 	nop
    19ac:	0001883a 	nop
    19b0:	e037883a 	mov	sp,fp
    19b4:	dfc00117 	ldw	ra,4(sp)
    19b8:	df000017 	ldw	fp,0(sp)
    19bc:	dec00204 	addi	sp,sp,8
    19c0:	f800283a 	ret

000019c4 <kiss_fft_alloc>:
 *
 * The return value is a contiguous block of memory, allocated with malloc.  As such,
 * It can be freed with free(), rather than a kiss_fft-specific function.
 * */
kiss_fft_cfg kiss_fft_alloc(int nfft,int inverse_fft,void * mem,size_t * lenmem )
{
    19c4:	deffef04 	addi	sp,sp,-68
    19c8:	dfc01015 	stw	ra,64(sp)
    19cc:	df000f15 	stw	fp,60(sp)
    19d0:	dcc00e15 	stw	r19,56(sp)
    19d4:	dc800d15 	stw	r18,52(sp)
    19d8:	dc400c15 	stw	r17,48(sp)
    19dc:	dc000b15 	stw	r16,44(sp)
    19e0:	df000f04 	addi	fp,sp,60
    19e4:	e13ff415 	stw	r4,-48(fp)
    19e8:	e17ff315 	stw	r5,-52(fp)
    19ec:	e1bff215 	stw	r6,-56(fp)
    19f0:	e1fff115 	stw	r7,-60(fp)
    kiss_fft_cfg st=NULL;
    19f4:	e03ffb15 	stw	zero,-20(fp)
    size_t memneeded = sizeof(struct kiss_fft_state)
        + sizeof(kiss_fft_cpx)*(nfft-1); /* twiddle factors*/
    19f8:	e0bff417 	ldw	r2,-48(fp)
    19fc:	10800844 	addi	r2,r2,33
    size_t memneeded = sizeof(struct kiss_fft_state)
    1a00:	100490fa 	slli	r2,r2,3
    1a04:	e0bff715 	stw	r2,-36(fp)

    if ( lenmem==NULL ) {
    1a08:	e0bff117 	ldw	r2,-60(fp)
    1a0c:	1000041e 	bne	r2,zero,1a20 <kiss_fft_alloc+0x5c>
        st = ( kiss_fft_cfg)KISS_FFT_MALLOC( memneeded );
    1a10:	e13ff717 	ldw	r4,-36(fp)
    1a14:	0009eb00 	call	9eb0 <malloc>
    1a18:	e0bffb15 	stw	r2,-20(fp)
    1a1c:	00000b06 	br	1a4c <kiss_fft_alloc+0x88>
    }else{
        if (mem != NULL && *lenmem >= memneeded)
    1a20:	e0bff217 	ldw	r2,-56(fp)
    1a24:	10000626 	beq	r2,zero,1a40 <kiss_fft_alloc+0x7c>
    1a28:	e0bff117 	ldw	r2,-60(fp)
    1a2c:	10c00017 	ldw	r3,0(r2)
    1a30:	e0bff717 	ldw	r2,-36(fp)
    1a34:	18800236 	bltu	r3,r2,1a40 <kiss_fft_alloc+0x7c>
            st = (kiss_fft_cfg)mem;
    1a38:	e0bff217 	ldw	r2,-56(fp)
    1a3c:	e0bffb15 	stw	r2,-20(fp)
        *lenmem = memneeded;
    1a40:	e0bff117 	ldw	r2,-60(fp)
    1a44:	e0fff717 	ldw	r3,-36(fp)
    1a48:	10c00015 	stw	r3,0(r2)
    }
    if (st) {
    1a4c:	e0bffb17 	ldw	r2,-20(fp)
    1a50:	10006126 	beq	r2,zero,1bd8 <kiss_fft_alloc+0x214>
        int i;
        st->nfft=nfft;
    1a54:	e0bffb17 	ldw	r2,-20(fp)
    1a58:	e0fff417 	ldw	r3,-48(fp)
    1a5c:	10c00015 	stw	r3,0(r2)
        st->inverse = inverse_fft;
    1a60:	e0bffb17 	ldw	r2,-20(fp)
    1a64:	e0fff317 	ldw	r3,-52(fp)
    1a68:	10c00115 	stw	r3,4(r2)

        for (i=0;i<nfft;++i) {
    1a6c:	e03ffa15 	stw	zero,-24(fp)
    1a70:	00005106 	br	1bb8 <kiss_fft_alloc+0x1f4>
            const double pi=3.141592653589793238462643383279502884197169399375105820974944;
    1a74:	00980034 	movhi	r2,24576
    1a78:	e0bff515 	stw	r2,-44(fp)
    1a7c:	00900274 	movhi	r2,16393
    1a80:	10887ec4 	addi	r2,r2,8699
    1a84:	e0bff615 	stw	r2,-40(fp)
            double phase = -2*pi*i / nfft;
    1a88:	000d883a 	mov	r6,zero
    1a8c:	01f00034 	movhi	r7,49152
    1a90:	e13ff517 	ldw	r4,-44(fp)
    1a94:	e17ff617 	ldw	r5,-40(fp)
    1a98:	00089100 	call	8910 <__muldf3>
    1a9c:	1009883a 	mov	r4,r2
    1aa0:	180b883a 	mov	r5,r3
    1aa4:	2025883a 	mov	r18,r4
    1aa8:	2827883a 	mov	r19,r5
    1aac:	e13ffa17 	ldw	r4,-24(fp)
    1ab0:	0009a9c0 	call	9a9c <__floatsidf>
    1ab4:	1009883a 	mov	r4,r2
    1ab8:	180b883a 	mov	r5,r3
    1abc:	200d883a 	mov	r6,r4
    1ac0:	280f883a 	mov	r7,r5
    1ac4:	9009883a 	mov	r4,r18
    1ac8:	980b883a 	mov	r5,r19
    1acc:	00089100 	call	8910 <__muldf3>
    1ad0:	1009883a 	mov	r4,r2
    1ad4:	180b883a 	mov	r5,r3
    1ad8:	2025883a 	mov	r18,r4
    1adc:	2827883a 	mov	r19,r5
    1ae0:	e13ff417 	ldw	r4,-48(fp)
    1ae4:	0009a9c0 	call	9a9c <__floatsidf>
    1ae8:	1009883a 	mov	r4,r2
    1aec:	180b883a 	mov	r5,r3
    1af0:	200d883a 	mov	r6,r4
    1af4:	280f883a 	mov	r7,r5
    1af8:	9009883a 	mov	r4,r18
    1afc:	980b883a 	mov	r5,r19
    1b00:	0007dac0 	call	7dac <__divdf3>
    1b04:	1009883a 	mov	r4,r2
    1b08:	180b883a 	mov	r5,r3
    1b0c:	e13ff815 	stw	r4,-32(fp)
    1b10:	e17ff915 	stw	r5,-28(fp)
            if (st->inverse)
    1b14:	e0bffb17 	ldw	r2,-20(fp)
    1b18:	10800117 	ldw	r2,4(r2)
    1b1c:	10000526 	beq	r2,zero,1b34 <kiss_fft_alloc+0x170>
                phase *= -1;
    1b20:	e43ff817 	ldw	r16,-32(fp)
    1b24:	e0bff917 	ldw	r2,-28(fp)
    1b28:	1460003c 	xorhi	r17,r2,32768
    1b2c:	e43ff815 	stw	r16,-32(fp)
    1b30:	e47ff915 	stw	r17,-28(fp)
            kf_cexp(st->twiddles+i, phase );
    1b34:	e13ff817 	ldw	r4,-32(fp)
    1b38:	e17ff917 	ldw	r5,-28(fp)
    1b3c:	0002de00 	call	2de0 <cos>
    1b40:	100d883a 	mov	r6,r2
    1b44:	180f883a 	mov	r7,r3
    1b48:	e0bffb17 	ldw	r2,-20(fp)
    1b4c:	10c04204 	addi	r3,r2,264
    1b50:	e0bffa17 	ldw	r2,-24(fp)
    1b54:	100490fa 	slli	r2,r2,3
    1b58:	18a5883a 	add	r18,r3,r2
    1b5c:	3009883a 	mov	r4,r6
    1b60:	380b883a 	mov	r5,r7
    1b64:	0009ce00 	call	9ce0 <__truncdfsf2>
    1b68:	1007883a 	mov	r3,r2
    1b6c:	90c00015 	stw	r3,0(r18)
    1b70:	e13ff817 	ldw	r4,-32(fp)
    1b74:	e17ff917 	ldw	r5,-28(fp)
    1b78:	00030740 	call	3074 <sin>
    1b7c:	100d883a 	mov	r6,r2
    1b80:	180f883a 	mov	r7,r3
    1b84:	e0bffb17 	ldw	r2,-20(fp)
    1b88:	10c04204 	addi	r3,r2,264
    1b8c:	e0bffa17 	ldw	r2,-24(fp)
    1b90:	100490fa 	slli	r2,r2,3
    1b94:	18a5883a 	add	r18,r3,r2
    1b98:	3009883a 	mov	r4,r6
    1b9c:	380b883a 	mov	r5,r7
    1ba0:	0009ce00 	call	9ce0 <__truncdfsf2>
    1ba4:	1007883a 	mov	r3,r2
    1ba8:	90c00115 	stw	r3,4(r18)
        for (i=0;i<nfft;++i) {
    1bac:	e0bffa17 	ldw	r2,-24(fp)
    1bb0:	10800044 	addi	r2,r2,1
    1bb4:	e0bffa15 	stw	r2,-24(fp)
    1bb8:	e0fffa17 	ldw	r3,-24(fp)
    1bbc:	e0bff417 	ldw	r2,-48(fp)
    1bc0:	18bfac16 	blt	r3,r2,1a74 <kiss_fft_alloc+0xb0>
        }

        kf_factor(nfft,st->factors);
    1bc4:	e0bffb17 	ldw	r2,-20(fp)
    1bc8:	10800204 	addi	r2,r2,8
    1bcc:	100b883a 	mov	r5,r2
    1bd0:	e13ff417 	ldw	r4,-48(fp)
    1bd4:	00018800 	call	1880 <kf_factor>
    }
    return st;
    1bd8:	e0bffb17 	ldw	r2,-20(fp)
}
    1bdc:	e6fffc04 	addi	sp,fp,-16
    1be0:	dfc00517 	ldw	ra,20(sp)
    1be4:	df000417 	ldw	fp,16(sp)
    1be8:	dcc00317 	ldw	r19,12(sp)
    1bec:	dc800217 	ldw	r18,8(sp)
    1bf0:	dc400117 	ldw	r17,4(sp)
    1bf4:	dc000017 	ldw	r16,0(sp)
    1bf8:	dec00604 	addi	sp,sp,24
    1bfc:	f800283a 	ret

00001c00 <kiss_fft_stride>:


void kiss_fft_stride(kiss_fft_cfg st,const kiss_fft_cpx *fin,kiss_fft_cpx *fout,int in_stride)
{
    1c00:	defff704 	addi	sp,sp,-36
    1c04:	dfc00815 	stw	ra,32(sp)
    1c08:	df000715 	stw	fp,28(sp)
    1c0c:	df000704 	addi	fp,sp,28
    1c10:	e13ffe15 	stw	r4,-8(fp)
    1c14:	e17ffd15 	stw	r5,-12(fp)
    1c18:	e1bffc15 	stw	r6,-16(fp)
    1c1c:	e1fffb15 	stw	r7,-20(fp)
    if (fin == fout) {
    1c20:	e0fffd17 	ldw	r3,-12(fp)
    1c24:	e0bffc17 	ldw	r2,-16(fp)
    1c28:	18801a1e 	bne	r3,r2,1c94 <kiss_fft_stride+0x94>
        //NOTE: this is not really an in-place FFT algorithm.
        //It just performs an out-of-place FFT into a temp buffer
        kiss_fft_cpx * tmpbuf = (kiss_fft_cpx*)KISS_FFT_TMP_ALLOC( sizeof(kiss_fft_cpx)*st->nfft);
    1c2c:	e0bffe17 	ldw	r2,-8(fp)
    1c30:	10800017 	ldw	r2,0(r2)
    1c34:	100490fa 	slli	r2,r2,3
    1c38:	1009883a 	mov	r4,r2
    1c3c:	0009eb00 	call	9eb0 <malloc>
    1c40:	e0bfff15 	stw	r2,-4(fp)
        kf_work(tmpbuf,fin,1,in_stride, st->factors,st);
    1c44:	e0bffe17 	ldw	r2,-8(fp)
    1c48:	10800204 	addi	r2,r2,8
    1c4c:	e0fffe17 	ldw	r3,-8(fp)
    1c50:	d8c00115 	stw	r3,4(sp)
    1c54:	d8800015 	stw	r2,0(sp)
    1c58:	e1fffb17 	ldw	r7,-20(fp)
    1c5c:	01800044 	movi	r6,1
    1c60:	e17ffd17 	ldw	r5,-12(fp)
    1c64:	e13fff17 	ldw	r4,-4(fp)
    1c68:	00016480 	call	1648 <kf_work>
        memcpy(fout,tmpbuf,sizeof(kiss_fft_cpx)*st->nfft);
    1c6c:	e0bffe17 	ldw	r2,-8(fp)
    1c70:	10800017 	ldw	r2,0(r2)
    1c74:	100490fa 	slli	r2,r2,3
    1c78:	100d883a 	mov	r6,r2
    1c7c:	e17fff17 	ldw	r5,-4(fp)
    1c80:	e13ffc17 	ldw	r4,-16(fp)
    1c84:	000a6b00 	call	a6b0 <memcpy>
        KISS_FFT_TMP_FREE(tmpbuf);
    1c88:	e13fff17 	ldw	r4,-4(fp)
    1c8c:	0009ec00 	call	9ec0 <free>
    }else{
        kf_work( fout, fin, 1,in_stride, st->factors,st );
    }
}
    1c90:	00000a06 	br	1cbc <kiss_fft_stride+0xbc>
        kf_work( fout, fin, 1,in_stride, st->factors,st );
    1c94:	e0bffe17 	ldw	r2,-8(fp)
    1c98:	10800204 	addi	r2,r2,8
    1c9c:	e0fffe17 	ldw	r3,-8(fp)
    1ca0:	d8c00115 	stw	r3,4(sp)
    1ca4:	d8800015 	stw	r2,0(sp)
    1ca8:	e1fffb17 	ldw	r7,-20(fp)
    1cac:	01800044 	movi	r6,1
    1cb0:	e17ffd17 	ldw	r5,-12(fp)
    1cb4:	e13ffc17 	ldw	r4,-16(fp)
    1cb8:	00016480 	call	1648 <kf_work>
}
    1cbc:	0001883a 	nop
    1cc0:	e037883a 	mov	sp,fp
    1cc4:	dfc00117 	ldw	ra,4(sp)
    1cc8:	df000017 	ldw	fp,0(sp)
    1ccc:	dec00204 	addi	sp,sp,8
    1cd0:	f800283a 	ret

00001cd4 <kiss_fft>:

void kiss_fft(kiss_fft_cfg cfg,const kiss_fft_cpx *fin,kiss_fft_cpx *fout)
{
    1cd4:	defffb04 	addi	sp,sp,-20
    1cd8:	dfc00415 	stw	ra,16(sp)
    1cdc:	df000315 	stw	fp,12(sp)
    1ce0:	df000304 	addi	fp,sp,12
    1ce4:	e13fff15 	stw	r4,-4(fp)
    1ce8:	e17ffe15 	stw	r5,-8(fp)
    1cec:	e1bffd15 	stw	r6,-12(fp)
    kiss_fft_stride(cfg,fin,fout,1);
    1cf0:	01c00044 	movi	r7,1
    1cf4:	e1bffd17 	ldw	r6,-12(fp)
    1cf8:	e17ffe17 	ldw	r5,-8(fp)
    1cfc:	e13fff17 	ldw	r4,-4(fp)
    1d00:	0001c000 	call	1c00 <kiss_fft_stride>
}
    1d04:	0001883a 	nop
    1d08:	e037883a 	mov	sp,fp
    1d0c:	dfc00117 	ldw	ra,4(sp)
    1d10:	df000017 	ldw	fp,0(sp)
    1d14:	dec00204 	addi	sp,sp,8
    1d18:	f800283a 	ret

00001d1c <kiss_fft_cleanup>:


void kiss_fft_cleanup(void)
{
    1d1c:	deffff04 	addi	sp,sp,-4
    1d20:	df000015 	stw	fp,0(sp)
    1d24:	d839883a 	mov	fp,sp
    // nothing needed any more
}
    1d28:	0001883a 	nop
    1d2c:	e037883a 	mov	sp,fp
    1d30:	df000017 	ldw	fp,0(sp)
    1d34:	dec00104 	addi	sp,sp,4
    1d38:	f800283a 	ret

00001d3c <kiss_fft_next_fast_size>:

int kiss_fft_next_fast_size(int n)
{
    1d3c:	defffc04 	addi	sp,sp,-16
    1d40:	dfc00315 	stw	ra,12(sp)
    1d44:	df000215 	stw	fp,8(sp)
    1d48:	df000204 	addi	fp,sp,8
    1d4c:	e13ffe15 	stw	r4,-8(fp)
    while(1) {
        int m=n;
    1d50:	e0bffe17 	ldw	r2,-8(fp)
    1d54:	e0bfff15 	stw	r2,-4(fp)
        while ( (m%2) == 0 ) m/=2;
    1d58:	00000506 	br	1d70 <kiss_fft_next_fast_size+0x34>
    1d5c:	e0bfff17 	ldw	r2,-4(fp)
    1d60:	1006d7fa 	srli	r3,r2,31
    1d64:	1885883a 	add	r2,r3,r2
    1d68:	1005d07a 	srai	r2,r2,1
    1d6c:	e0bfff15 	stw	r2,-4(fp)
    1d70:	e0bfff17 	ldw	r2,-4(fp)
    1d74:	1080004c 	andi	r2,r2,1
    1d78:	103ff826 	beq	r2,zero,1d5c <kiss_fft_next_fast_size+0x20>
        while ( (m%3) == 0 ) m/=3;
    1d7c:	00000506 	br	1d94 <kiss_fft_next_fast_size+0x58>
    1d80:	e0bfff17 	ldw	r2,-4(fp)
    1d84:	014000c4 	movi	r5,3
    1d88:	1009883a 	mov	r4,r2
    1d8c:	0006f980 	call	6f98 <__divsi3>
    1d90:	e0bfff15 	stw	r2,-4(fp)
    1d94:	e0bfff17 	ldw	r2,-4(fp)
    1d98:	014000c4 	movi	r5,3
    1d9c:	1009883a 	mov	r4,r2
    1da0:	00070180 	call	7018 <__modsi3>
    1da4:	103ff626 	beq	r2,zero,1d80 <kiss_fft_next_fast_size+0x44>
        while ( (m%5) == 0 ) m/=5;
    1da8:	00000506 	br	1dc0 <kiss_fft_next_fast_size+0x84>
    1dac:	e0bfff17 	ldw	r2,-4(fp)
    1db0:	01400144 	movi	r5,5
    1db4:	1009883a 	mov	r4,r2
    1db8:	0006f980 	call	6f98 <__divsi3>
    1dbc:	e0bfff15 	stw	r2,-4(fp)
    1dc0:	e0bfff17 	ldw	r2,-4(fp)
    1dc4:	01400144 	movi	r5,5
    1dc8:	1009883a 	mov	r4,r2
    1dcc:	00070180 	call	7018 <__modsi3>
    1dd0:	103ff626 	beq	r2,zero,1dac <kiss_fft_next_fast_size+0x70>
        if (m<=1)
    1dd4:	e0bfff17 	ldw	r2,-4(fp)
    1dd8:	10800088 	cmpgei	r2,r2,2
    1ddc:	10000426 	beq	r2,zero,1df0 <kiss_fft_next_fast_size+0xb4>
            break; /* n is completely factorable by twos, threes, and fives */
        n++;
    1de0:	e0bffe17 	ldw	r2,-8(fp)
    1de4:	10800044 	addi	r2,r2,1
    1de8:	e0bffe15 	stw	r2,-8(fp)
    while(1) {
    1dec:	003fd806 	br	1d50 <kiss_fft_next_fast_size+0x14>
            break; /* n is completely factorable by twos, threes, and fives */
    1df0:	0001883a 	nop
    }
    return n;
    1df4:	e0bffe17 	ldw	r2,-8(fp)
}
    1df8:	e037883a 	mov	sp,fp
    1dfc:	dfc00117 	ldw	ra,4(sp)
    1e00:	df000017 	ldw	fp,0(sp)
    1e04:	dec00204 	addi	sp,sp,8
    1e08:	f800283a 	ret

00001e0c <main>:
/*******************************************************************************
 * This program performs the following:
 *  1. records audio for 1.5 seconds when KEY[0] is pressed.
 *  2. Normalizes
 ******************************************************************************/
int main(void) {
    1e0c:	defffd04 	addi	sp,sp,-12
    1e10:	dfc00215 	stw	ra,8(sp)
    1e14:	df000115 	stw	fp,4(sp)
    1e18:	dc000015 	stw	r16,0(sp)
    1e1c:	df000104 	addi	fp,sp,4
    1e20:	023ffef4 	movhi	r8,65531
    1e24:	423d7c04 	addi	r8,r8,-2576
    1e28:	da37883a 	add	sp,sp,r8
    /* Declare volatile pointers to I/O registers (volatile means that IO load
       and store instructions will be used to access these pointer locations,
       instead of regular memory loads and stores) */
    volatile int *red_LED_ptr = (int *)LED_BASE;
    1e2c:	00bfc834 	movhi	r2,65312
    1e30:	e0bffb15 	stw	r2,-20(fp)
    volatile int *audio_ptr = (int *)AUDIO_BASE;
    1e34:	00bfc834 	movhi	r2,65312
    1e38:	108c1004 	addi	r2,r2,12352
    1e3c:	e0bffa15 	stw	r2,-24(fp)

    /* used for audio record/playback */
    int fifospace;
    int record = 0, play = 0, buffer_index = 0;
    1e40:	e03ff815 	stw	zero,-32(fp)
    1e44:	e03ff715 	stw	zero,-36(fp)
    1e48:	e03ff615 	stw	zero,-40(fp)
    float windowed_buffer[BUF_SIZE];
    kiss_fft_cpx output[FFT_SIZE];
    float mfcc_buffer[(BUF_SIZE / FFT_SHIFT) * NUM_MFCC];

    /* read and echo audio data */
    record = 0;
    1e4c:	e03ff815 	stw	zero,-32(fp)
    play = 0;
    1e50:	e03ff715 	stw	zero,-36(fp)

    while (1) {
        check_KEYs(&record, &play, &buffer_index);
    1e54:	e13ff604 	addi	r4,fp,-40
    1e58:	e0fff704 	addi	r3,fp,-36
    1e5c:	e0bff804 	addi	r2,fp,-32
    1e60:	200d883a 	mov	r6,r4
    1e64:	180b883a 	mov	r5,r3
    1e68:	1009883a 	mov	r4,r2
    1e6c:	00020780 	call	2078 <check_KEYs>
        if (record) {
    1e70:	e0bff817 	ldw	r2,-32(fp)
    1e74:	103ff726 	beq	r2,zero,1e54 <main+0x48>
            *(red_LED_ptr) = 0x1;  // turn on LEDR[0]
    1e78:	e0bffb17 	ldw	r2,-20(fp)
    1e7c:	00c00044 	movi	r3,1
    1e80:	10c00015 	stw	r3,0(r2)

            fifospace = *(audio_ptr + 1);  // read the audio port fifospace register
    1e84:	e0bffa17 	ldw	r2,-24(fp)
    1e88:	10800117 	ldw	r2,4(r2)
    1e8c:	e0bffe15 	stw	r2,-8(fp)
            if ((fifospace & 0x000000FF) > BUF_THRESHOLD)  // check RARC
    1e90:	e0bffe17 	ldw	r2,-8(fp)
    1e94:	10803fcc 	andi	r2,r2,255
    1e98:	10801850 	cmplti	r2,r2,97
    1e9c:	103fed1e 	bne	r2,zero,1e54 <main+0x48>
            {
                // store data until the the audio-in FIFO is empty or the buffer is full
                while ((fifospace & 0x000000FF) && (buffer_index < BUF_SIZE)) {
    1ea0:	00006e06 	br	205c <main+0x250>
                    left_buffer[buffer_index] = *(audio_ptr + 2);
    1ea4:	e0bffa17 	ldw	r2,-24(fp)
    1ea8:	10800204 	addi	r2,r2,8
    1eac:	10800017 	ldw	r2,0(r2)
    1eb0:	e43ff617 	ldw	r16,-40(fp)
    1eb4:	1009883a 	mov	r4,r2
    1eb8:	000729c0 	call	729c <__floatsisf>
    1ebc:	1009883a 	mov	r4,r2
    1ec0:	00bffff4 	movhi	r2,65535
    1ec4:	10b1d704 	addi	r2,r2,-14500
    1ec8:	10bfff04 	addi	r2,r2,-4
    1ecc:	1707883a 	add	r3,r2,fp
    1ed0:	800490ba 	slli	r2,r16,2
    1ed4:	1885883a 	add	r2,r3,r2
    1ed8:	11000015 	stw	r4,0(r2)
                    right_buffer[buffer_index] = *(audio_ptr + 3);
    1edc:	e17ff617 	ldw	r5,-40(fp)
    1ee0:	e0bffa17 	ldw	r2,-24(fp)
    1ee4:	10c00317 	ldw	r3,12(r2)
    1ee8:	00bfffb4 	movhi	r2,65534
    1eec:	10a3b704 	addi	r2,r2,-28964
    1ef0:	10bfff04 	addi	r2,r2,-4
    1ef4:	1709883a 	add	r4,r2,fp
    1ef8:	280490ba 	slli	r2,r5,2
    1efc:	2085883a 	add	r2,r4,r2
    1f00:	10c00015 	stw	r3,0(r2)
                    ++buffer_index;
    1f04:	e0bff617 	ldw	r2,-40(fp)
    1f08:	10800044 	addi	r2,r2,1
    1f0c:	e0bff615 	stw	r2,-40(fp)

                    if (buffer_index == BUF_SIZE) {
    1f10:	e0bff617 	ldw	r2,-40(fp)
    1f14:	10938818 	cmpnei	r2,r2,20000
    1f18:	10004d1e 	bne	r2,zero,2050 <main+0x244>
                        // done recording
                        record = 0;
    1f1c:	e03ff815 	stw	zero,-32(fp)
                        *(red_LED_ptr) = 0x0;  // turn off LEDR
    1f20:	e0bffb17 	ldw	r2,-20(fp)
    1f24:	10000015 	stw	zero,0(r2)
                        normalize_audio(left_buffer, normalized_buffer, BUF_SIZE);
    1f28:	00bfff34 	movhi	r2,65532
    1f2c:	10959704 	addi	r2,r2,22108
    1f30:	10bfff04 	addi	r2,r2,-4
    1f34:	1707883a 	add	r3,r2,fp
    1f38:	00bffff4 	movhi	r2,65535
    1f3c:	10b1d704 	addi	r2,r2,-14500
    1f40:	10bfff04 	addi	r2,r2,-4
    1f44:	1705883a 	add	r2,r2,fp
    1f48:	01938804 	movi	r6,20000
    1f4c:	180b883a 	mov	r5,r3
    1f50:	1009883a 	mov	r4,r2
    1f54:	00021440 	call	2144 <normalize_audio>
                        // Calculate MFCCs
						calculate_mfcc(normalized_buffer, BUF_SIZE, mfcc_buffer);
    1f58:	00bffef4 	movhi	r2,65531
    1f5c:	10bd7c04 	addi	r2,r2,-2576
    1f60:	10bfff04 	addi	r2,r2,-4
    1f64:	1707883a 	add	r3,r2,fp
    1f68:	00bfff34 	movhi	r2,65532
    1f6c:	10959704 	addi	r2,r2,22108
    1f70:	10bfff04 	addi	r2,r2,-4
    1f74:	1705883a 	add	r2,r2,fp
    1f78:	180d883a 	mov	r6,r3
    1f7c:	01538804 	movi	r5,20000
    1f80:	1009883a 	mov	r4,r2
    1f84:	00023140 	call	2314 <calculate_mfcc>
                        *(red_LED_ptr) = 0x8;
    1f88:	e0bffb17 	ldw	r2,-20(fp)
    1f8c:	00c00204 	movi	r3,8
    1f90:	10c00015 	stw	r3,0(r2)
						int num_frames = (BUF_SIZE - FFT_SIZE) / FFT_SHIFT + 1;
    1f94:	00800984 	movi	r2,38
    1f98:	e0bff915 	stw	r2,-28(fp)
						for (int frame = 0; frame < num_frames; frame++) {
    1f9c:	e03ffd15 	stw	zero,-12(fp)
    1fa0:	00002706 	br	2040 <main+0x234>
							printf("Frame %d:\n", frame);
    1fa4:	e17ffd17 	ldw	r5,-12(fp)
    1fa8:	01000074 	movhi	r4,1
    1fac:	211dd804 	addi	r4,r4,30560
    1fb0:	000a7e00 	call	a7e0 <printf>
							for (int m = 0; m < NUM_MFCC; m++) {
    1fb4:	e03ffc15 	stw	zero,-16(fp)
    1fb8:	00001906 	br	2020 <main+0x214>
								printf("%f ", mfcc_buffer[frame * NUM_MFCC + m]);
    1fbc:	01400344 	movi	r5,13
    1fc0:	e13ffd17 	ldw	r4,-12(fp)
    1fc4:	000714c0 	call	714c <__mulsi3>
    1fc8:	1007883a 	mov	r3,r2
    1fcc:	e0bffc17 	ldw	r2,-16(fp)
    1fd0:	1889883a 	add	r4,r3,r2
    1fd4:	00bffef4 	movhi	r2,65531
    1fd8:	10bd7c04 	addi	r2,r2,-2576
    1fdc:	10bfff04 	addi	r2,r2,-4
    1fe0:	1707883a 	add	r3,r2,fp
    1fe4:	200490ba 	slli	r2,r4,2
    1fe8:	1885883a 	add	r2,r3,r2
    1fec:	10c00017 	ldw	r3,0(r2)
    1ff0:	1809883a 	mov	r4,r3
    1ff4:	0009be40 	call	9be4 <__extendsfdf2>
    1ff8:	100d883a 	mov	r6,r2
    1ffc:	180f883a 	mov	r7,r3
    2000:	300b883a 	mov	r5,r6
    2004:	380d883a 	mov	r6,r7
    2008:	01000074 	movhi	r4,1
    200c:	211ddb04 	addi	r4,r4,30572
    2010:	000a7e00 	call	a7e0 <printf>
							for (int m = 0; m < NUM_MFCC; m++) {
    2014:	e0bffc17 	ldw	r2,-16(fp)
    2018:	10800044 	addi	r2,r2,1
    201c:	e0bffc15 	stw	r2,-16(fp)
    2020:	e0bffc17 	ldw	r2,-16(fp)
    2024:	10800350 	cmplti	r2,r2,13
    2028:	103fe41e 	bne	r2,zero,1fbc <main+0x1b0>
							}
							printf("\n");
    202c:	01000284 	movi	r4,10
    2030:	000a8200 	call	a820 <putchar>
						for (int frame = 0; frame < num_frames; frame++) {
    2034:	e0bffd17 	ldw	r2,-12(fp)
    2038:	10800044 	addi	r2,r2,1
    203c:	e0bffd15 	stw	r2,-12(fp)
    2040:	e0fffd17 	ldw	r3,-12(fp)
    2044:	e0bff917 	ldw	r2,-28(fp)
    2048:	18bfd616 	blt	r3,r2,1fa4 <main+0x198>
						}
                        // Reset buffer_index for the next recording
                        buffer_index = 0;
    204c:	e03ff615 	stw	zero,-40(fp)
                    }
                    fifospace = *(audio_ptr + 1);  // read the audio port fifospace register
    2050:	e0bffa17 	ldw	r2,-24(fp)
    2054:	10800117 	ldw	r2,4(r2)
    2058:	e0bffe15 	stw	r2,-8(fp)
                while ((fifospace & 0x000000FF) && (buffer_index < BUF_SIZE)) {
    205c:	e0bffe17 	ldw	r2,-8(fp)
    2060:	10803fcc 	andi	r2,r2,255
    2064:	103f7b26 	beq	r2,zero,1e54 <main+0x48>
    2068:	e0bff617 	ldw	r2,-40(fp)
    206c:	10938810 	cmplti	r2,r2,20000
    2070:	103f8c1e 	bne	r2,zero,1ea4 <main+0x98>
        check_KEYs(&record, &play, &buffer_index);
    2074:	003f7706 	br	1e54 <main+0x48>

00002078 <check_KEYs>:
}

/****************************************************************************************
 * Subroutine to read KEYs
 ****************************************************************************************/
void check_KEYs(int *KEY0, int *KEY1, int *counter) {
    2078:	defff904 	addi	sp,sp,-28
    207c:	df000615 	stw	fp,24(sp)
    2080:	df000604 	addi	fp,sp,24
    2084:	e13ffc15 	stw	r4,-16(fp)
    2088:	e17ffb15 	stw	r5,-20(fp)
    208c:	e1bffa15 	stw	r6,-24(fp)
    volatile int *KEY_ptr = (int *)KEY_BASE;
    2090:	00bfc834 	movhi	r2,65312
    2094:	10801404 	addi	r2,r2,80
    2098:	e0bfff15 	stw	r2,-4(fp)
    volatile int *audio_ptr = (int *)AUDIO_BASE;
    209c:	00bfc834 	movhi	r2,65312
    20a0:	108c1004 	addi	r2,r2,12352
    20a4:	e0bffe15 	stw	r2,-8(fp)
    int KEY_value;

    KEY_value = *(KEY_ptr);  // read the pushbutton KEY values
    20a8:	e0bfff17 	ldw	r2,-4(fp)
    20ac:	10800017 	ldw	r2,0(r2)
    20b0:	e0bffd15 	stw	r2,-12(fp)
    while (*KEY_ptr)
    20b4:	0001883a 	nop
    20b8:	e0bfff17 	ldw	r2,-4(fp)
    20bc:	10800017 	ldw	r2,0(r2)
    20c0:	103ffd1e 	bne	r2,zero,20b8 <check_KEYs+0x40>
        ;  // wait for pushbutton KEY release

    if (KEY_value == 0x1)  // check KEY0
    20c4:	e0bffd17 	ldw	r2,-12(fp)
    20c8:	10800058 	cmpnei	r2,r2,1
    20cc:	10000b1e 	bne	r2,zero,20fc <check_KEYs+0x84>
    {
        // reset counter to start recording
        *counter = 0;
    20d0:	e0bffa17 	ldw	r2,-24(fp)
    20d4:	10000015 	stw	zero,0(r2)
        // clear audio-in FIFO
        *(audio_ptr) = 0x4;
    20d8:	e0bffe17 	ldw	r2,-8(fp)
    20dc:	00c00104 	movi	r3,4
    20e0:	10c00015 	stw	r3,0(r2)
        *(audio_ptr) = 0x0;
    20e4:	e0bffe17 	ldw	r2,-8(fp)
    20e8:	10000015 	stw	zero,0(r2)

        *KEY0 = 1;
    20ec:	e0bffc17 	ldw	r2,-16(fp)
    20f0:	00c00044 	movi	r3,1
    20f4:	10c00015 	stw	r3,0(r2)
        *(audio_ptr) = 0x8;
        *(audio_ptr) = 0x0;

        *KEY1 = 1;
    }
}
    20f8:	00000d06 	br	2130 <check_KEYs+0xb8>
    } else if (KEY_value == 0x2)  // check KEY1
    20fc:	e0bffd17 	ldw	r2,-12(fp)
    2100:	10800098 	cmpnei	r2,r2,2
    2104:	10000a1e 	bne	r2,zero,2130 <check_KEYs+0xb8>
        *counter = 0;
    2108:	e0bffa17 	ldw	r2,-24(fp)
    210c:	10000015 	stw	zero,0(r2)
        *(audio_ptr) = 0x8;
    2110:	e0bffe17 	ldw	r2,-8(fp)
    2114:	00c00204 	movi	r3,8
    2118:	10c00015 	stw	r3,0(r2)
        *(audio_ptr) = 0x0;
    211c:	e0bffe17 	ldw	r2,-8(fp)
    2120:	10000015 	stw	zero,0(r2)
        *KEY1 = 1;
    2124:	e0bffb17 	ldw	r2,-20(fp)
    2128:	00c00044 	movi	r3,1
    212c:	10c00015 	stw	r3,0(r2)
}
    2130:	0001883a 	nop
    2134:	e037883a 	mov	sp,fp
    2138:	df000017 	ldw	fp,0(sp)
    213c:	dec00104 	addi	sp,sp,4
    2140:	f800283a 	ret

00002144 <normalize_audio>:

void normalize_audio(float *input_buffer, float *output_buffer, int size) {
    2144:	defff604 	addi	sp,sp,-40
    2148:	dfc00915 	stw	ra,36(sp)
    214c:	df000815 	stw	fp,32(sp)
    2150:	df000804 	addi	fp,sp,32
    2154:	e13ffa15 	stw	r4,-24(fp)
    2158:	e17ff915 	stw	r5,-28(fp)
    215c:	e1bff815 	stw	r6,-32(fp)
	float max_val = 0.0f;
    2160:	e03fff15 	stw	zero,-4(fp)

	// Find the maximum absolute value
	for (int i = 0; i < size; i++) {
    2164:	e03ffe15 	stw	zero,-8(fp)
    2168:	00001606 	br	21c4 <normalize_audio+0x80>
		float signed_val = input_buffer[i] - 32768.0f;  // Adjusting for unsigned 16-bit PCM
    216c:	e0bffe17 	ldw	r2,-8(fp)
    2170:	100490ba 	slli	r2,r2,2
    2174:	e0fffa17 	ldw	r3,-24(fp)
    2178:	1885883a 	add	r2,r3,r2
    217c:	10c00017 	ldw	r3,0(r2)
    2180:	0091c034 	movhi	r2,18176
    2184:	1885ffb2 	custom	254,r2,r3,r2
    2188:	e0bffc15 	stw	r2,-16(fp)
		float abs_val = fabs(signed_val);
    218c:	e0fffc17 	ldw	r3,-16(fp)
    2190:	00a00034 	movhi	r2,32768
    2194:	10bfffc4 	addi	r2,r2,-1
    2198:	1884703a 	and	r2,r3,r2
    219c:	e0bffb15 	stw	r2,-20(fp)
		if (abs_val > max_val) {
    21a0:	e17fff17 	ldw	r5,-4(fp)
    21a4:	e13ffb17 	ldw	r4,-20(fp)
    21a8:	00071e40 	call	71e4 <__gesf2>
    21ac:	0080020e 	bge	zero,r2,21b8 <normalize_audio+0x74>
			max_val = abs_val;
    21b0:	e0bffb17 	ldw	r2,-20(fp)
    21b4:	e0bfff15 	stw	r2,-4(fp)
	for (int i = 0; i < size; i++) {
    21b8:	e0bffe17 	ldw	r2,-8(fp)
    21bc:	10800044 	addi	r2,r2,1
    21c0:	e0bffe15 	stw	r2,-8(fp)
    21c4:	e0fffe17 	ldw	r3,-8(fp)
    21c8:	e0bff817 	ldw	r2,-32(fp)
    21cc:	18bfe716 	blt	r3,r2,216c <normalize_audio+0x28>
		}
	}

	// Prevent division by zero
	if (max_val == 0) {
    21d0:	000b883a 	mov	r5,zero
    21d4:	e13fff17 	ldw	r4,-4(fp)
    21d8:	00071740 	call	7174 <__eqsf2>
    21dc:	1000021e 	bne	r2,zero,21e8 <normalize_audio+0xa4>
		max_val = 1.0f;  // To avoid division by zero
    21e0:	008fe034 	movhi	r2,16256
    21e4:	e0bfff15 	stw	r2,-4(fp)
	}

	// Normalize the input buffer to the range [-1, 1]
	for (int i = 0; i < size; i++) {
    21e8:	e03ffd15 	stw	zero,-12(fp)
    21ec:	00001106 	br	2234 <normalize_audio+0xf0>
		output_buffer[i] = (input_buffer[i] - 32768.0f) / max_val;
    21f0:	e0bffd17 	ldw	r2,-12(fp)
    21f4:	100490ba 	slli	r2,r2,2
    21f8:	e0fffa17 	ldw	r3,-24(fp)
    21fc:	1885883a 	add	r2,r3,r2
    2200:	10c00017 	ldw	r3,0(r2)
    2204:	0091c034 	movhi	r2,18176
    2208:	1889ffb2 	custom	254,r4,r3,r2
    220c:	e0bffd17 	ldw	r2,-12(fp)
    2210:	100490ba 	slli	r2,r2,2
    2214:	e0fff917 	ldw	r3,-28(fp)
    2218:	1885883a 	add	r2,r3,r2
    221c:	e0ffff17 	ldw	r3,-4(fp)
    2220:	20c7fff2 	custom	255,r3,r4,r3
    2224:	10c00015 	stw	r3,0(r2)
	for (int i = 0; i < size; i++) {
    2228:	e0bffd17 	ldw	r2,-12(fp)
    222c:	10800044 	addi	r2,r2,1
    2230:	e0bffd15 	stw	r2,-12(fp)
    2234:	e0fffd17 	ldw	r3,-12(fp)
    2238:	e0bff817 	ldw	r2,-32(fp)
    223c:	18bfec16 	blt	r3,r2,21f0 <normalize_audio+0xac>
	}
}
    2240:	0001883a 	nop
    2244:	0001883a 	nop
    2248:	e037883a 	mov	sp,fp
    224c:	dfc00117 	ldw	ra,4(sp)
    2250:	df000017 	ldw	fp,0(sp)
    2254:	dec00204 	addi	sp,sp,8
    2258:	f800283a 	ret

0000225c <fft>:

void fft(float *input_buffer, kiss_fft_cpx *output_buffer) {
    225c:	def7fa04 	addi	sp,sp,-8216
    2260:	dfc80515 	stw	ra,8212(sp)
    2264:	df080415 	stw	fp,8208(sp)
    2268:	df080404 	addi	fp,sp,8208
    226c:	e137fd15 	stw	r4,-8204(fp)
    2270:	e177fc15 	stw	r5,-8208(fp)
    kiss_fft_cfg config;

    config = kiss_fft_alloc(FFT_SIZE, 0, NULL, NULL);
    2274:	000f883a 	mov	r7,zero
    2278:	000d883a 	mov	r6,zero
    227c:	000b883a 	mov	r5,zero
    2280:	01010004 	movi	r4,1024
    2284:	00019c40 	call	19c4 <kiss_fft_alloc>
    2288:	e0bffe15 	stw	r2,-8(fp)

    // Convert input to kiss_fft_cpx format
    kiss_fft_cpx kiss_input_buffer[FFT_SIZE];
    for (int i = 0; i < FFT_SIZE; i++) {
    228c:	e03fff15 	stw	zero,-4(fp)
    2290:	00001006 	br	22d4 <fft+0x78>
        kiss_input_buffer[i].r = input_buffer[i];
    2294:	e0bfff17 	ldw	r2,-4(fp)
    2298:	100490ba 	slli	r2,r2,2
    229c:	e0f7fd17 	ldw	r3,-8204(fp)
    22a0:	1885883a 	add	r2,r3,r2
    22a4:	10c00017 	ldw	r3,0(r2)
    22a8:	e0bfff17 	ldw	r2,-4(fp)
    22ac:	100490fa 	slli	r2,r2,3
    22b0:	e085883a 	add	r2,fp,r2
    22b4:	10f7fe15 	stw	r3,-8200(r2)
        kiss_input_buffer[i].i = 0; // Assuming input is real, imaginary part is 0
    22b8:	e0bfff17 	ldw	r2,-4(fp)
    22bc:	100490fa 	slli	r2,r2,3
    22c0:	e085883a 	add	r2,fp,r2
    22c4:	1037ff15 	stw	zero,-8196(r2)
    for (int i = 0; i < FFT_SIZE; i++) {
    22c8:	e0bfff17 	ldw	r2,-4(fp)
    22cc:	10800044 	addi	r2,r2,1
    22d0:	e0bfff15 	stw	r2,-4(fp)
    22d4:	e0bfff17 	ldw	r2,-4(fp)
    22d8:	10810010 	cmplti	r2,r2,1024
    22dc:	103fed1e 	bne	r2,zero,2294 <fft+0x38>
    }

    // Perform FFT
    kiss_fft(config, kiss_input_buffer, output_buffer);
    22e0:	e0b7fe04 	addi	r2,fp,-8200
    22e4:	e1b7fc17 	ldw	r6,-8208(fp)
    22e8:	100b883a 	mov	r5,r2
    22ec:	e13ffe17 	ldw	r4,-8(fp)
    22f0:	0001cd40 	call	1cd4 <kiss_fft>

    // Free the FFT configuration
    kiss_fft_free(config);
    22f4:	e13ffe17 	ldw	r4,-8(fp)
    22f8:	0009ec00 	call	9ec0 <free>
}
    22fc:	0001883a 	nop
    2300:	e037883a 	mov	sp,fp
    2304:	dfc00117 	ldw	ra,4(sp)
    2308:	df000017 	ldw	fp,0(sp)
    230c:	dec00204 	addi	sp,sp,8
    2310:	f800283a 	ret

00002314 <calculate_mfcc>:

void calculate_mfcc(float *input_buffer, int signal_length, float *mfcc_buffer) {
    2314:	dee7f304 	addi	sp,sp,-24628
    2318:	dfd80c15 	stw	ra,24624(sp)
    231c:	df180b15 	stw	fp,24620(sp)
    2320:	dc980a15 	stw	r18,24616(sp)
    2324:	dc580915 	stw	r17,24612(sp)
    2328:	dc180815 	stw	r16,24608(sp)
    232c:	df180b04 	addi	fp,sp,24620
    2330:	e127f815 	stw	r4,-24608(fp)
    2334:	e167f715 	stw	r5,-24612(fp)
    2338:	e1a7f615 	stw	r6,-24616(fp)
    float frame[FFT_SIZE];
    float windowed_frame[FFT_SIZE];
    // Calculate how many frames can be extracted from the input signal.
    int num_frames = (signal_length - FFT_SIZE) / FFT_SHIFT + 1;
    233c:	e0a7f717 	ldw	r2,-24612(fp)
    2340:	10bf0004 	addi	r2,r2,-1024
    2344:	1000010e 	bge	r2,zero,234c <calculate_mfcc+0x38>
    2348:	10807fc4 	addi	r2,r2,511
    234c:	1005d27a 	srai	r2,r2,9
    2350:	10800044 	addi	r2,r2,1
    2354:	e0bff915 	stw	r2,-28(fp)

    for (int frame_num = 0; frame_num < num_frames; frame_num++) {
    2358:	e03ffc15 	stw	zero,-16(fp)
    235c:	00007106 	br	2524 <calculate_mfcc+0x210>
        // Extract FFT_SIZE samples from the start of the current frame.
        memcpy(frame, input_buffer + frame_num * FFT_SHIFT, sizeof(float) * FFT_SIZE);
    2360:	e0bffc17 	ldw	r2,-16(fp)
    2364:	100492fa 	slli	r2,r2,11
    2368:	e0e7f817 	ldw	r3,-24608(fp)
    236c:	1887883a 	add	r3,r3,r2
    2370:	e0bbf904 	addi	r2,fp,-4124
    2374:	01840004 	movi	r6,4096
    2378:	180b883a 	mov	r5,r3
    237c:	1009883a 	mov	r4,r2
    2380:	000a6b00 	call	a6b0 <memcpy>
        printf("cycle %d fft", frame_num + 1);
    2384:	e0bffc17 	ldw	r2,-16(fp)
    2388:	10800044 	addi	r2,r2,1
    238c:	100b883a 	mov	r5,r2
    2390:	01000074 	movhi	r4,1
    2394:	211ddc04 	addi	r4,r4,30576
    2398:	000a7e00 	call	a7e0 <printf>
        // Apply the Hamming Window to the current frame.
        //hamming_window(frame, windowed_frame, FFT_SIZE);

        // Calculate the FFT of the current frame.
        kiss_fft_cpx fft_output[FFT_SIZE];
        fft(frame, fft_output);
    239c:	e0e7f904 	addi	r3,fp,-24604
    23a0:	e0bbf904 	addi	r2,fp,-4124
    23a4:	180b883a 	mov	r5,r3
    23a8:	1009883a 	mov	r4,r2
    23ac:	000225c0 	call	225c <fft>

        printf("cycle %d spectrum", frame_num + 1);
    23b0:	e0bffc17 	ldw	r2,-16(fp)
    23b4:	10800044 	addi	r2,r2,1
    23b8:	100b883a 	mov	r5,r2
    23bc:	01000074 	movhi	r4,1
    23c0:	211de004 	addi	r4,r4,30592
    23c4:	000a7e00 	call	a7e0 <printf>

        // Compute the magnitude spectrum of the current frame.
        double magnitude_spectrum[FFT_SIZE];
        for (int i = 0; i < FFT_SIZE; i++) {
    23c8:	e03ffb15 	stw	zero,-20(fp)
    23cc:	00002906 	br	2474 <calculate_mfcc+0x160>
            magnitude_spectrum[i] = sqrt(fft_output[i].r * fft_output[i].r + fft_output[i].i * fft_output[i].i);
    23d0:	e0bffb17 	ldw	r2,-20(fp)
    23d4:	100490fa 	slli	r2,r2,3
    23d8:	10bffd04 	addi	r2,r2,-12
    23dc:	1705883a 	add	r2,r2,fp
    23e0:	10e7fc17 	ldw	r3,-24592(r2)
    23e4:	e0bffb17 	ldw	r2,-20(fp)
    23e8:	100490fa 	slli	r2,r2,3
    23ec:	10bffd04 	addi	r2,r2,-12
    23f0:	1709883a 	add	r4,r2,fp
    23f4:	20a7fc17 	ldw	r2,-24592(r4)
    23f8:	1887ff32 	custom	252,r3,r3,r2
    23fc:	e0bffb17 	ldw	r2,-20(fp)
    2400:	100490fa 	slli	r2,r2,3
    2404:	10bffd04 	addi	r2,r2,-12
    2408:	1705883a 	add	r2,r2,fp
    240c:	1127fd17 	ldw	r4,-24588(r2)
    2410:	e0bffb17 	ldw	r2,-20(fp)
    2414:	100490fa 	slli	r2,r2,3
    2418:	10bffd04 	addi	r2,r2,-12
    241c:	170b883a 	add	r5,r2,fp
    2420:	28a7fd17 	ldw	r2,-24588(r5)
    2424:	2085ff32 	custom	252,r2,r4,r2
    2428:	1885ff72 	custom	253,r2,r3,r2
    242c:	1009883a 	mov	r4,r2
    2430:	0009be40 	call	9be4 <__extendsfdf2>
    2434:	100d883a 	mov	r6,r2
    2438:	180f883a 	mov	r7,r3
    243c:	3009883a 	mov	r4,r6
    2440:	380b883a 	mov	r5,r7
    2444:	00034b80 	call	34b8 <sqrt>
    2448:	1009883a 	mov	r4,r2
    244c:	180b883a 	mov	r5,r3
    2450:	e0bffb17 	ldw	r2,-20(fp)
    2454:	100490fa 	slli	r2,r2,3
    2458:	10bffd04 	addi	r2,r2,-12
    245c:	1705883a 	add	r2,r2,fp
    2460:	112ffc15 	stw	r4,-16400(r2)
    2464:	116ffd15 	stw	r5,-16396(r2)
        for (int i = 0; i < FFT_SIZE; i++) {
    2468:	e0bffb17 	ldw	r2,-20(fp)
    246c:	10800044 	addi	r2,r2,1
    2470:	e0bffb15 	stw	r2,-20(fp)
    2474:	e0bffb17 	ldw	r2,-20(fp)
    2478:	10810010 	cmplti	r2,r2,1024
    247c:	103fd41e 	bne	r2,zero,23d0 <calculate_mfcc+0xbc>
        }

        printf("cycle %d mfcc", frame_num + 1);
    2480:	e0bffc17 	ldw	r2,-16(fp)
    2484:	10800044 	addi	r2,r2,1
    2488:	100b883a 	mov	r5,r2
    248c:	01000074 	movhi	r4,1
    2490:	211de504 	addi	r4,r4,30612
    2494:	000a7e00 	call	a7e0 <printf>

        // Calculate MFCCs for the current frame.
        for (int m = 0; m < NUM_MFCC; m++) {
    2498:	e03ffa15 	stw	zero,-24(fp)
    249c:	00001b06 	br	250c <calculate_mfcc+0x1f8>
            mfcc_buffer[frame_num * NUM_MFCC + m] = GetCoefficient(magnitude_spectrum, 8192, NUM_FILTERS, FFT_SIZE, m);
    24a0:	e0bffa17 	ldw	r2,-24(fp)
    24a4:	e0eff904 	addi	r3,fp,-16412
    24a8:	d8800015 	stw	r2,0(sp)
    24ac:	01c10004 	movi	r7,1024
    24b0:	01800304 	movi	r6,12
    24b4:	01480004 	movi	r5,8192
    24b8:	1809883a 	mov	r4,r3
    24bc:	00025580 	call	2558 <GetCoefficient>
    24c0:	1021883a 	mov	r16,r2
    24c4:	1823883a 	mov	r17,r3
    24c8:	01400344 	movi	r5,13
    24cc:	e13ffc17 	ldw	r4,-16(fp)
    24d0:	000714c0 	call	714c <__mulsi3>
    24d4:	1007883a 	mov	r3,r2
    24d8:	e0bffa17 	ldw	r2,-24(fp)
    24dc:	1885883a 	add	r2,r3,r2
    24e0:	100490ba 	slli	r2,r2,2
    24e4:	e0e7f617 	ldw	r3,-24616(fp)
    24e8:	18a5883a 	add	r18,r3,r2
    24ec:	8009883a 	mov	r4,r16
    24f0:	880b883a 	mov	r5,r17
    24f4:	0009ce00 	call	9ce0 <__truncdfsf2>
    24f8:	1007883a 	mov	r3,r2
    24fc:	90c00015 	stw	r3,0(r18)
        for (int m = 0; m < NUM_MFCC; m++) {
    2500:	e0bffa17 	ldw	r2,-24(fp)
    2504:	10800044 	addi	r2,r2,1
    2508:	e0bffa15 	stw	r2,-24(fp)
    250c:	e0bffa17 	ldw	r2,-24(fp)
    2510:	10800350 	cmplti	r2,r2,13
    2514:	103fe21e 	bne	r2,zero,24a0 <calculate_mfcc+0x18c>
    for (int frame_num = 0; frame_num < num_frames; frame_num++) {
    2518:	e0bffc17 	ldw	r2,-16(fp)
    251c:	10800044 	addi	r2,r2,1
    2520:	e0bffc15 	stw	r2,-16(fp)
    2524:	e0fffc17 	ldw	r3,-16(fp)
    2528:	e0bff917 	ldw	r2,-28(fp)
    252c:	18bf8c16 	blt	r3,r2,2360 <calculate_mfcc+0x4c>
        }
    }
}
    2530:	0001883a 	nop
    2534:	0001883a 	nop
    2538:	e6fffd04 	addi	sp,fp,-12
    253c:	dfc00417 	ldw	ra,16(sp)
    2540:	df000317 	ldw	fp,12(sp)
    2544:	dc800217 	ldw	r18,8(sp)
    2548:	dc400117 	ldw	r17,4(sp)
    254c:	dc000017 	ldw	r16,0(sp)
    2550:	dec00504 	addi	sp,sp,20
    2554:	f800283a 	ret

00002558 <GetCoefficient>:
 * binSize - the size of the spectralData array, usually a power of 2
 * m - The mth MFCC coefficient to compute
 *
 */
double GetCoefficient(double* spectralData, unsigned int samplingRate, unsigned int NumFilters, unsigned int binSize, unsigned int m)
{
    2558:	deffee04 	addi	sp,sp,-72
    255c:	dfc01115 	stw	ra,68(sp)
    2560:	df001015 	stw	fp,64(sp)
    2564:	dcc00f15 	stw	r19,60(sp)
    2568:	dc800e15 	stw	r18,56(sp)
    256c:	dc400d15 	stw	r17,52(sp)
    2570:	dc000c15 	stw	r16,48(sp)
    2574:	df001004 	addi	fp,sp,64
    2578:	e13ff315 	stw	r4,-52(fp)
    257c:	e17ff215 	stw	r5,-56(fp)
    2580:	e1bff115 	stw	r6,-60(fp)
    2584:	e1fff015 	stw	r7,-64(fp)
	double result = 0.0f;
    2588:	e03ff415 	stw	zero,-48(fp)
    258c:	e03ff515 	stw	zero,-44(fp)
	double outerSum = 0.0f;
    2590:	e03ffa15 	stw	zero,-24(fp)
    2594:	e03ffb15 	stw	zero,-20(fp)
	double innerSum = 0.0f;
    2598:	e03ff815 	stw	zero,-32(fp)
    259c:	e03ff915 	stw	zero,-28(fp)
	unsigned int k, l;

	// 0 <= m < L
	if(m >= NumFilters)
    25a0:	e0c00217 	ldw	r3,8(fp)
    25a4:	e0bff117 	ldw	r2,-60(fp)
    25a8:	18800336 	bltu	r3,r2,25b8 <GetCoefficient+0x60>
	{
		// This represents an error condition - the specified coefficient is greater than or equal to the number of filters. The behavior in this case is undefined.
		return 0.0f;
    25ac:	0005883a 	mov	r2,zero
    25b0:	0007883a 	mov	r3,zero
    25b4:	00007f06 	br	27b4 <GetCoefficient+0x25c>
	}

	result = NormalizationFactor(NumFilters, m);
    25b8:	e0bff117 	ldw	r2,-60(fp)
    25bc:	e0c00217 	ldw	r3,8(fp)
    25c0:	180b883a 	mov	r5,r3
    25c4:	1009883a 	mov	r4,r2
    25c8:	00027e80 	call	27e8 <NormalizationFactor>
    25cc:	e0bff415 	stw	r2,-48(fp)
    25d0:	e0fff515 	stw	r3,-44(fp)

	for(l = 1; l <= NumFilters; l++)
    25d4:	00800044 	movi	r2,1
    25d8:	e0bff615 	stw	r2,-40(fp)
    25dc:	00006706 	br	277c <GetCoefficient+0x224>
	{
		// Compute inner sum
		innerSum = 0.0f;
    25e0:	e03ff815 	stw	zero,-32(fp)
    25e4:	e03ff915 	stw	zero,-28(fp)
		for(k = 0; k < binSize - 1; k++)
    25e8:	e03ff715 	stw	zero,-36(fp)
    25ec:	00002606 	br	2688 <GetCoefficient+0x130>
		{
			innerSum += fabs(spectralData[k] * GetFilterParameter(samplingRate, binSize, k, l));
    25f0:	e0bff717 	ldw	r2,-36(fp)
    25f4:	100490fa 	slli	r2,r2,3
    25f8:	e0fff317 	ldw	r3,-52(fp)
    25fc:	1885883a 	add	r2,r3,r2
    2600:	14000017 	ldw	r16,0(r2)
    2604:	14400117 	ldw	r17,4(r2)
    2608:	e1fff617 	ldw	r7,-40(fp)
    260c:	e1bff717 	ldw	r6,-36(fp)
    2610:	e17ff017 	ldw	r5,-64(fp)
    2614:	e13ff217 	ldw	r4,-56(fp)
    2618:	00028b00 	call	28b0 <GetFilterParameter>
    261c:	1009883a 	mov	r4,r2
    2620:	180b883a 	mov	r5,r3
    2624:	200d883a 	mov	r6,r4
    2628:	280f883a 	mov	r7,r5
    262c:	8009883a 	mov	r4,r16
    2630:	880b883a 	mov	r5,r17
    2634:	00089100 	call	8910 <__muldf3>
    2638:	100d883a 	mov	r6,r2
    263c:	180f883a 	mov	r7,r3
    2640:	3009883a 	mov	r4,r6
    2644:	380b883a 	mov	r5,r7
    2648:	2025883a 	mov	r18,r4
    264c:	00a00034 	movhi	r2,32768
    2650:	10bfffc4 	addi	r2,r2,-1
    2654:	28a6703a 	and	r19,r5,r2
    2658:	900d883a 	mov	r6,r18
    265c:	980f883a 	mov	r7,r19
    2660:	e13ff817 	ldw	r4,-32(fp)
    2664:	e17ff917 	ldw	r5,-28(fp)
    2668:	00074bc0 	call	74bc <__adddf3>
    266c:	1009883a 	mov	r4,r2
    2670:	180b883a 	mov	r5,r3
    2674:	e13ff815 	stw	r4,-32(fp)
    2678:	e17ff915 	stw	r5,-28(fp)
		for(k = 0; k < binSize - 1; k++)
    267c:	e0bff717 	ldw	r2,-36(fp)
    2680:	10800044 	addi	r2,r2,1
    2684:	e0bff715 	stw	r2,-36(fp)
    2688:	e0bff017 	ldw	r2,-64(fp)
    268c:	10bfffc4 	addi	r2,r2,-1
    2690:	e0fff717 	ldw	r3,-36(fp)
    2694:	18bfd636 	bltu	r3,r2,25f0 <GetCoefficient+0x98>
		}

		if(innerSum > 0.0f)
    2698:	000d883a 	mov	r6,zero
    269c:	000f883a 	mov	r7,zero
    26a0:	e13ff817 	ldw	r4,-32(fp)
    26a4:	e17ff917 	ldw	r5,-28(fp)
    26a8:	00087400 	call	8740 <__gedf2>
    26ac:	0080050e 	bge	zero,r2,26c4 <GetCoefficient+0x16c>
		{
			innerSum = log(innerSum); // The log of 0 is undefined, so don't use it
    26b0:	e13ff817 	ldw	r4,-32(fp)
    26b4:	e17ff917 	ldw	r5,-28(fp)
    26b8:	00031380 	call	3138 <log>
    26bc:	e0bff815 	stw	r2,-32(fp)
    26c0:	e0fff915 	stw	r3,-28(fp)
		}

		innerSum = innerSum * cos(((m * PI) / NumFilters) * (l - 0.5f));
    26c4:	e1000217 	ldw	r4,8(fp)
    26c8:	00073c00 	call	73c0 <__floatunsisf>
    26cc:	1007883a 	mov	r3,r2
    26d0:	00901274 	movhi	r2,16457
    26d4:	1083f6c4 	addi	r2,r2,4059
    26d8:	18a1ff32 	custom	252,r16,r3,r2
    26dc:	e13ff117 	ldw	r4,-60(fp)
    26e0:	00073c00 	call	73c0 <__floatunsisf>
    26e4:	1007883a 	mov	r3,r2
    26e8:	80e1fff2 	custom	255,r16,r16,r3
    26ec:	e13ff617 	ldw	r4,-40(fp)
    26f0:	00073c00 	call	73c0 <__floatunsisf>
    26f4:	1007883a 	mov	r3,r2
    26f8:	008fc034 	movhi	r2,16128
    26fc:	1885ffb2 	custom	254,r2,r3,r2
    2700:	8085ff32 	custom	252,r2,r16,r2
    2704:	1009883a 	mov	r4,r2
    2708:	0009be40 	call	9be4 <__extendsfdf2>
    270c:	100d883a 	mov	r6,r2
    2710:	180f883a 	mov	r7,r3
    2714:	3009883a 	mov	r4,r6
    2718:	380b883a 	mov	r5,r7
    271c:	0002de00 	call	2de0 <cos>
    2720:	1009883a 	mov	r4,r2
    2724:	180b883a 	mov	r5,r3
    2728:	200d883a 	mov	r6,r4
    272c:	280f883a 	mov	r7,r5
    2730:	e13ff817 	ldw	r4,-32(fp)
    2734:	e17ff917 	ldw	r5,-28(fp)
    2738:	00089100 	call	8910 <__muldf3>
    273c:	1009883a 	mov	r4,r2
    2740:	180b883a 	mov	r5,r3
    2744:	e13ff815 	stw	r4,-32(fp)
    2748:	e17ff915 	stw	r5,-28(fp)


		outerSum += innerSum;
    274c:	e1bff817 	ldw	r6,-32(fp)
    2750:	e1fff917 	ldw	r7,-28(fp)
    2754:	e13ffa17 	ldw	r4,-24(fp)
    2758:	e17ffb17 	ldw	r5,-20(fp)
    275c:	00074bc0 	call	74bc <__adddf3>
    2760:	1009883a 	mov	r4,r2
    2764:	180b883a 	mov	r5,r3
    2768:	e13ffa15 	stw	r4,-24(fp)
    276c:	e17ffb15 	stw	r5,-20(fp)
	for(l = 1; l <= NumFilters; l++)
    2770:	e0bff617 	ldw	r2,-40(fp)
    2774:	10800044 	addi	r2,r2,1
    2778:	e0bff615 	stw	r2,-40(fp)
    277c:	e0bff617 	ldw	r2,-40(fp)
    2780:	e0fff117 	ldw	r3,-60(fp)
    2784:	18bf962e 	bgeu	r3,r2,25e0 <GetCoefficient+0x88>
	}

	result *= outerSum;
    2788:	e1bffa17 	ldw	r6,-24(fp)
    278c:	e1fffb17 	ldw	r7,-20(fp)
    2790:	e13ff417 	ldw	r4,-48(fp)
    2794:	e17ff517 	ldw	r5,-44(fp)
    2798:	00089100 	call	8910 <__muldf3>
    279c:	1009883a 	mov	r4,r2
    27a0:	180b883a 	mov	r5,r3
    27a4:	e13ff415 	stw	r4,-48(fp)
    27a8:	e17ff515 	stw	r5,-44(fp)

	return result;
    27ac:	e0bff417 	ldw	r2,-48(fp)
    27b0:	e0fff517 	ldw	r3,-44(fp)
}
    27b4:	1009883a 	mov	r4,r2
    27b8:	180b883a 	mov	r5,r3
    27bc:	2005883a 	mov	r2,r4
    27c0:	2807883a 	mov	r3,r5
    27c4:	e6fffc04 	addi	sp,fp,-16
    27c8:	dfc00517 	ldw	ra,20(sp)
    27cc:	df000417 	ldw	fp,16(sp)
    27d0:	dcc00317 	ldw	r19,12(sp)
    27d4:	dc800217 	ldw	r18,8(sp)
    27d8:	dc400117 	ldw	r17,4(sp)
    27dc:	dc000017 	ldw	r16,0(sp)
    27e0:	dec00604 	addi	sp,sp,24
    27e4:	f800283a 	ret

000027e8 <NormalizationFactor>:
/*
 * Computes the Normalization Factor (Equation 6)
 * Used for internal computation only - not to be called directly
 */
double NormalizationFactor(int NumFilters, int m)
{
    27e8:	defffa04 	addi	sp,sp,-24
    27ec:	dfc00515 	stw	ra,20(sp)
    27f0:	df000415 	stw	fp,16(sp)
    27f4:	df000404 	addi	fp,sp,16
    27f8:	e13ffd15 	stw	r4,-12(fp)
    27fc:	e17ffc15 	stw	r5,-16(fp)
	double normalizationFactor = 0.0f;
    2800:	e03ffe15 	stw	zero,-8(fp)
    2804:	e03fff15 	stw	zero,-4(fp)

	if(m == 0)
    2808:	e0bffc17 	ldw	r2,-16(fp)
    280c:	10000f1e 	bne	r2,zero,284c <NormalizationFactor+0x64>
	{
		normalizationFactor = sqrt(1.0f / NumFilters);
    2810:	e13ffd17 	ldw	r4,-12(fp)
    2814:	000729c0 	call	729c <__floatsisf>
    2818:	1007883a 	mov	r3,r2
    281c:	008fe034 	movhi	r2,16256
    2820:	10c5fff2 	custom	255,r2,r2,r3
    2824:	1009883a 	mov	r4,r2
    2828:	0009be40 	call	9be4 <__extendsfdf2>
    282c:	100d883a 	mov	r6,r2
    2830:	180f883a 	mov	r7,r3
    2834:	3009883a 	mov	r4,r6
    2838:	380b883a 	mov	r5,r7
    283c:	00034b80 	call	34b8 <sqrt>
    2840:	e0bffe15 	stw	r2,-8(fp)
    2844:	e0ffff15 	stw	r3,-4(fp)
    2848:	00000e06 	br	2884 <NormalizationFactor+0x9c>
	}
	else
	{
		normalizationFactor = sqrt(2.0f / NumFilters);
    284c:	e13ffd17 	ldw	r4,-12(fp)
    2850:	000729c0 	call	729c <__floatsisf>
    2854:	1007883a 	mov	r3,r2
    2858:	00900034 	movhi	r2,16384
    285c:	10c5fff2 	custom	255,r2,r2,r3
    2860:	1009883a 	mov	r4,r2
    2864:	0009be40 	call	9be4 <__extendsfdf2>
    2868:	100d883a 	mov	r6,r2
    286c:	180f883a 	mov	r7,r3
    2870:	3009883a 	mov	r4,r6
    2874:	380b883a 	mov	r5,r7
    2878:	00034b80 	call	34b8 <sqrt>
    287c:	e0bffe15 	stw	r2,-8(fp)
    2880:	e0ffff15 	stw	r3,-4(fp)
	}

	return normalizationFactor;
    2884:	e0bffe17 	ldw	r2,-8(fp)
    2888:	e0ffff17 	ldw	r3,-4(fp)
    288c:	1009883a 	mov	r4,r2
    2890:	180b883a 	mov	r5,r3
}
    2894:	2005883a 	mov	r2,r4
    2898:	2807883a 	mov	r3,r5
    289c:	e037883a 	mov	sp,fp
    28a0:	dfc00117 	ldw	ra,4(sp)
    28a4:	df000017 	ldw	fp,0(sp)
    28a8:	dec00204 	addi	sp,sp,8
    28ac:	f800283a 	ret

000028b0 <GetFilterParameter>:
/*
 * Compute the filter parameter for the specified frequency and filter bands (Eq. 2)
 * Used for internal computation only - not the be called directly
 */
double GetFilterParameter(unsigned int samplingRate, unsigned int binSize, unsigned int frequencyBand, unsigned int filterBand)
{
    28b0:	deffee04 	addi	sp,sp,-72
    28b4:	dfc01115 	stw	ra,68(sp)
    28b8:	df001015 	stw	fp,64(sp)
    28bc:	dc400f15 	stw	r17,60(sp)
    28c0:	dc000e15 	stw	r16,56(sp)
    28c4:	df001004 	addi	fp,sp,64
    28c8:	e13ff315 	stw	r4,-52(fp)
    28cc:	e17ff215 	stw	r5,-56(fp)
    28d0:	e1bff115 	stw	r6,-60(fp)
    28d4:	e1fff015 	stw	r7,-64(fp)
	double filterParameter = 0.0f;
    28d8:	e03ffc15 	stw	zero,-16(fp)
    28dc:	e03ffd15 	stw	zero,-12(fp)

	double boundary = (frequencyBand * samplingRate) / binSize;		// k * Fs / N
    28e0:	e17ff317 	ldw	r5,-52(fp)
    28e4:	e13ff117 	ldw	r4,-60(fp)
    28e8:	000714c0 	call	714c <__mulsi3>
    28ec:	e17ff217 	ldw	r5,-56(fp)
    28f0:	1009883a 	mov	r4,r2
    28f4:	000708c0 	call	708c <__udivsi3>
    28f8:	1009883a 	mov	r4,r2
    28fc:	0009b540 	call	9b54 <__floatunsidf>
    2900:	1009883a 	mov	r4,r2
    2904:	180b883a 	mov	r5,r3
    2908:	e13ffa15 	stw	r4,-24(fp)
    290c:	e17ffb15 	stw	r5,-20(fp)
	double prevCenterFrequency = GetCenterFrequency(filterBand - 1);		// fc(l - 1) etc.
    2910:	e0bff017 	ldw	r2,-64(fp)
    2914:	10bfffc4 	addi	r2,r2,-1
    2918:	1009883a 	mov	r4,r2
    291c:	0002cc40 	call	2cc4 <GetCenterFrequency>
    2920:	e0bff815 	stw	r2,-32(fp)
    2924:	e0fff915 	stw	r3,-28(fp)
	double thisCenterFrequency = GetCenterFrequency(filterBand);
    2928:	e13ff017 	ldw	r4,-64(fp)
    292c:	0002cc40 	call	2cc4 <GetCenterFrequency>
    2930:	e0bff615 	stw	r2,-40(fp)
    2934:	e0fff715 	stw	r3,-36(fp)
	double nextCenterFrequency = GetCenterFrequency(filterBand + 1);
    2938:	e0bff017 	ldw	r2,-64(fp)
    293c:	10800044 	addi	r2,r2,1
    2940:	1009883a 	mov	r4,r2
    2944:	0002cc40 	call	2cc4 <GetCenterFrequency>
    2948:	e0bff415 	stw	r2,-48(fp)
    294c:	e0fff515 	stw	r3,-44(fp)

	if(boundary >= 0 && boundary < prevCenterFrequency)
    2950:	000d883a 	mov	r6,zero
    2954:	000f883a 	mov	r7,zero
    2958:	e13ffa17 	ldw	r4,-24(fp)
    295c:	e17ffb17 	ldw	r5,-20(fp)
    2960:	00087400 	call	8740 <__gedf2>
    2964:	10000916 	blt	r2,zero,298c <GetFilterParameter+0xdc>
    2968:	e1bff817 	ldw	r6,-32(fp)
    296c:	e1fff917 	ldw	r7,-28(fp)
    2970:	e13ffa17 	ldw	r4,-24(fp)
    2974:	e17ffb17 	ldw	r5,-20(fp)
    2978:	00088280 	call	8828 <__ledf2>
    297c:	1000030e 	bge	r2,zero,298c <GetFilterParameter+0xdc>
	{
		filterParameter = 0.0f;
    2980:	e03ffc15 	stw	zero,-16(fp)
    2984:	e03ffd15 	stw	zero,-12(fp)
    2988:	00007c06 	br	2b7c <GetFilterParameter+0x2cc>
	}
	else if(boundary >= prevCenterFrequency && boundary < thisCenterFrequency)
    298c:	e1bff817 	ldw	r6,-32(fp)
    2990:	e1fff917 	ldw	r7,-28(fp)
    2994:	e13ffa17 	ldw	r4,-24(fp)
    2998:	e17ffb17 	ldw	r5,-20(fp)
    299c:	00087400 	call	8740 <__gedf2>
    29a0:	10002f16 	blt	r2,zero,2a60 <GetFilterParameter+0x1b0>
    29a4:	e1bff617 	ldw	r6,-40(fp)
    29a8:	e1fff717 	ldw	r7,-36(fp)
    29ac:	e13ffa17 	ldw	r4,-24(fp)
    29b0:	e17ffb17 	ldw	r5,-20(fp)
    29b4:	00088280 	call	8828 <__ledf2>
    29b8:	1000290e 	bge	r2,zero,2a60 <GetFilterParameter+0x1b0>
	{
		filterParameter = (boundary - prevCenterFrequency) / (thisCenterFrequency - prevCenterFrequency);
    29bc:	e1bff817 	ldw	r6,-32(fp)
    29c0:	e1fff917 	ldw	r7,-28(fp)
    29c4:	e13ffa17 	ldw	r4,-24(fp)
    29c8:	e17ffb17 	ldw	r5,-20(fp)
    29cc:	00090bc0 	call	90bc <__subdf3>
    29d0:	1009883a 	mov	r4,r2
    29d4:	180b883a 	mov	r5,r3
    29d8:	2021883a 	mov	r16,r4
    29dc:	2823883a 	mov	r17,r5
    29e0:	e1bff817 	ldw	r6,-32(fp)
    29e4:	e1fff917 	ldw	r7,-28(fp)
    29e8:	e13ff617 	ldw	r4,-40(fp)
    29ec:	e17ff717 	ldw	r5,-36(fp)
    29f0:	00090bc0 	call	90bc <__subdf3>
    29f4:	1009883a 	mov	r4,r2
    29f8:	180b883a 	mov	r5,r3
    29fc:	2005883a 	mov	r2,r4
    2a00:	2807883a 	mov	r3,r5
    2a04:	100d883a 	mov	r6,r2
    2a08:	180f883a 	mov	r7,r3
    2a0c:	8009883a 	mov	r4,r16
    2a10:	880b883a 	mov	r5,r17
    2a14:	0007dac0 	call	7dac <__divdf3>
    2a18:	1009883a 	mov	r4,r2
    2a1c:	180b883a 	mov	r5,r3
    2a20:	e13ffc15 	stw	r4,-16(fp)
    2a24:	e17ffd15 	stw	r5,-12(fp)
		filterParameter *= GetMagnitudeFactor(filterBand);
    2a28:	e13ff017 	ldw	r4,-64(fp)
    2a2c:	0002bb00 	call	2bb0 <GetMagnitudeFactor>
    2a30:	1009883a 	mov	r4,r2
    2a34:	180b883a 	mov	r5,r3
    2a38:	200d883a 	mov	r6,r4
    2a3c:	280f883a 	mov	r7,r5
    2a40:	e13ffc17 	ldw	r4,-16(fp)
    2a44:	e17ffd17 	ldw	r5,-12(fp)
    2a48:	00089100 	call	8910 <__muldf3>
    2a4c:	1009883a 	mov	r4,r2
    2a50:	180b883a 	mov	r5,r3
    2a54:	e13ffc15 	stw	r4,-16(fp)
    2a58:	e17ffd15 	stw	r5,-12(fp)
    2a5c:	00004706 	br	2b7c <GetFilterParameter+0x2cc>
	}
	else if(boundary >= thisCenterFrequency && boundary < nextCenterFrequency)
    2a60:	e1bff617 	ldw	r6,-40(fp)
    2a64:	e1fff717 	ldw	r7,-36(fp)
    2a68:	e13ffa17 	ldw	r4,-24(fp)
    2a6c:	e17ffb17 	ldw	r5,-20(fp)
    2a70:	00087400 	call	8740 <__gedf2>
    2a74:	10002f16 	blt	r2,zero,2b34 <GetFilterParameter+0x284>
    2a78:	e1bff417 	ldw	r6,-48(fp)
    2a7c:	e1fff517 	ldw	r7,-44(fp)
    2a80:	e13ffa17 	ldw	r4,-24(fp)
    2a84:	e17ffb17 	ldw	r5,-20(fp)
    2a88:	00088280 	call	8828 <__ledf2>
    2a8c:	1000290e 	bge	r2,zero,2b34 <GetFilterParameter+0x284>
	{
		filterParameter = (boundary - nextCenterFrequency) / (thisCenterFrequency - nextCenterFrequency);
    2a90:	e1bff417 	ldw	r6,-48(fp)
    2a94:	e1fff517 	ldw	r7,-44(fp)
    2a98:	e13ffa17 	ldw	r4,-24(fp)
    2a9c:	e17ffb17 	ldw	r5,-20(fp)
    2aa0:	00090bc0 	call	90bc <__subdf3>
    2aa4:	1009883a 	mov	r4,r2
    2aa8:	180b883a 	mov	r5,r3
    2aac:	2021883a 	mov	r16,r4
    2ab0:	2823883a 	mov	r17,r5
    2ab4:	e1bff417 	ldw	r6,-48(fp)
    2ab8:	e1fff517 	ldw	r7,-44(fp)
    2abc:	e13ff617 	ldw	r4,-40(fp)
    2ac0:	e17ff717 	ldw	r5,-36(fp)
    2ac4:	00090bc0 	call	90bc <__subdf3>
    2ac8:	1009883a 	mov	r4,r2
    2acc:	180b883a 	mov	r5,r3
    2ad0:	2005883a 	mov	r2,r4
    2ad4:	2807883a 	mov	r3,r5
    2ad8:	100d883a 	mov	r6,r2
    2adc:	180f883a 	mov	r7,r3
    2ae0:	8009883a 	mov	r4,r16
    2ae4:	880b883a 	mov	r5,r17
    2ae8:	0007dac0 	call	7dac <__divdf3>
    2aec:	1009883a 	mov	r4,r2
    2af0:	180b883a 	mov	r5,r3
    2af4:	e13ffc15 	stw	r4,-16(fp)
    2af8:	e17ffd15 	stw	r5,-12(fp)
		filterParameter *= GetMagnitudeFactor(filterBand);
    2afc:	e13ff017 	ldw	r4,-64(fp)
    2b00:	0002bb00 	call	2bb0 <GetMagnitudeFactor>
    2b04:	1009883a 	mov	r4,r2
    2b08:	180b883a 	mov	r5,r3
    2b0c:	200d883a 	mov	r6,r4
    2b10:	280f883a 	mov	r7,r5
    2b14:	e13ffc17 	ldw	r4,-16(fp)
    2b18:	e17ffd17 	ldw	r5,-12(fp)
    2b1c:	00089100 	call	8910 <__muldf3>
    2b20:	1009883a 	mov	r4,r2
    2b24:	180b883a 	mov	r5,r3
    2b28:	e13ffc15 	stw	r4,-16(fp)
    2b2c:	e17ffd15 	stw	r5,-12(fp)
    2b30:	00001206 	br	2b7c <GetFilterParameter+0x2cc>
	}
	else if(boundary >= nextCenterFrequency && boundary < samplingRate)
    2b34:	e1bff417 	ldw	r6,-48(fp)
    2b38:	e1fff517 	ldw	r7,-44(fp)
    2b3c:	e13ffa17 	ldw	r4,-24(fp)
    2b40:	e17ffb17 	ldw	r5,-20(fp)
    2b44:	00087400 	call	8740 <__gedf2>
    2b48:	10000c16 	blt	r2,zero,2b7c <GetFilterParameter+0x2cc>
    2b4c:	e13ff317 	ldw	r4,-52(fp)
    2b50:	0009b540 	call	9b54 <__floatunsidf>
    2b54:	1009883a 	mov	r4,r2
    2b58:	180b883a 	mov	r5,r3
    2b5c:	200d883a 	mov	r6,r4
    2b60:	280f883a 	mov	r7,r5
    2b64:	e13ffa17 	ldw	r4,-24(fp)
    2b68:	e17ffb17 	ldw	r5,-20(fp)
    2b6c:	00088280 	call	8828 <__ledf2>
    2b70:	1000020e 	bge	r2,zero,2b7c <GetFilterParameter+0x2cc>
	{
		filterParameter = 0.0f;
    2b74:	e03ffc15 	stw	zero,-16(fp)
    2b78:	e03ffd15 	stw	zero,-12(fp)
	}

	return filterParameter;
    2b7c:	e0bffc17 	ldw	r2,-16(fp)
    2b80:	e0fffd17 	ldw	r3,-12(fp)
    2b84:	1009883a 	mov	r4,r2
    2b88:	180b883a 	mov	r5,r3
}
    2b8c:	2005883a 	mov	r2,r4
    2b90:	2807883a 	mov	r3,r5
    2b94:	e6fffe04 	addi	sp,fp,-8
    2b98:	dfc00317 	ldw	ra,12(sp)
    2b9c:	df000217 	ldw	fp,8(sp)
    2ba0:	dc400117 	ldw	r17,4(sp)
    2ba4:	dc000017 	ldw	r16,0(sp)
    2ba8:	dec00404 	addi	sp,sp,16
    2bac:	f800283a 	ret

00002bb0 <GetMagnitudeFactor>:
/*
 * Compute the band-dependent magnitude factor for the given filter band (Eq. 3)
 * Used for internal computation only - not the be called directly
 */
double GetMagnitudeFactor(unsigned int filterBand)
{
    2bb0:	defff904 	addi	sp,sp,-28
    2bb4:	dfc00615 	stw	ra,24(sp)
    2bb8:	df000515 	stw	fp,20(sp)
    2bbc:	dc400415 	stw	r17,16(sp)
    2bc0:	dc000315 	stw	r16,12(sp)
    2bc4:	df000504 	addi	fp,sp,20
    2bc8:	e13ffb15 	stw	r4,-20(fp)
	double magnitudeFactor = 0.0f;
    2bcc:	e03ffc15 	stw	zero,-16(fp)
    2bd0:	e03ffd15 	stw	zero,-12(fp)

	if(filterBand >= 1 && filterBand <= 14)
    2bd4:	e0bffb17 	ldw	r2,-20(fp)
    2bd8:	10000926 	beq	r2,zero,2c00 <GetMagnitudeFactor+0x50>
    2bdc:	e0bffb17 	ldw	r2,-20(fp)
    2be0:	108003e8 	cmpgeui	r2,r2,15
    2be4:	1000061e 	bne	r2,zero,2c00 <GetMagnitudeFactor+0x50>
	{
		magnitudeFactor = 0.015;
    2be8:	00b80034 	movhi	r2,57344
    2bec:	e0bffc15 	stw	r2,-16(fp)
    2bf0:	008fe3f4 	movhi	r2,16271
    2bf4:	10ae1444 	addi	r2,r2,-18351
    2bf8:	e0bffd15 	stw	r2,-12(fp)
    2bfc:	00002406 	br	2c90 <GetMagnitudeFactor+0xe0>
	}
	else if(filterBand >= 15 && filterBand <= 48)
    2c00:	e0bffb17 	ldw	r2,-20(fp)
    2c04:	108003f0 	cmpltui	r2,r2,15
    2c08:	1000211e 	bne	r2,zero,2c90 <GetMagnitudeFactor+0xe0>
    2c0c:	e0bffb17 	ldw	r2,-20(fp)
    2c10:	10800c68 	cmpgeui	r2,r2,49
    2c14:	10001e1e 	bne	r2,zero,2c90 <GetMagnitudeFactor+0xe0>
	{
		magnitudeFactor = 2.0f / (GetCenterFrequency(filterBand + 1) - GetCenterFrequency(filterBand -1));
    2c18:	e0bffb17 	ldw	r2,-20(fp)
    2c1c:	10800044 	addi	r2,r2,1
    2c20:	1009883a 	mov	r4,r2
    2c24:	0002cc40 	call	2cc4 <GetCenterFrequency>
    2c28:	1021883a 	mov	r16,r2
    2c2c:	1823883a 	mov	r17,r3
    2c30:	e0bffb17 	ldw	r2,-20(fp)
    2c34:	10bfffc4 	addi	r2,r2,-1
    2c38:	1009883a 	mov	r4,r2
    2c3c:	0002cc40 	call	2cc4 <GetCenterFrequency>
    2c40:	1009883a 	mov	r4,r2
    2c44:	180b883a 	mov	r5,r3
    2c48:	200d883a 	mov	r6,r4
    2c4c:	280f883a 	mov	r7,r5
    2c50:	8009883a 	mov	r4,r16
    2c54:	880b883a 	mov	r5,r17
    2c58:	00090bc0 	call	90bc <__subdf3>
    2c5c:	1009883a 	mov	r4,r2
    2c60:	180b883a 	mov	r5,r3
    2c64:	2005883a 	mov	r2,r4
    2c68:	2807883a 	mov	r3,r5
    2c6c:	100d883a 	mov	r6,r2
    2c70:	180f883a 	mov	r7,r3
    2c74:	0009883a 	mov	r4,zero
    2c78:	01500034 	movhi	r5,16384
    2c7c:	0007dac0 	call	7dac <__divdf3>
    2c80:	1009883a 	mov	r4,r2
    2c84:	180b883a 	mov	r5,r3
    2c88:	e13ffc15 	stw	r4,-16(fp)
    2c8c:	e17ffd15 	stw	r5,-12(fp)
	}

	return magnitudeFactor;
    2c90:	e0bffc17 	ldw	r2,-16(fp)
    2c94:	e0fffd17 	ldw	r3,-12(fp)
    2c98:	1009883a 	mov	r4,r2
    2c9c:	180b883a 	mov	r5,r3
}
    2ca0:	2005883a 	mov	r2,r4
    2ca4:	2807883a 	mov	r3,r5
    2ca8:	e6fffe04 	addi	sp,fp,-8
    2cac:	dfc00317 	ldw	ra,12(sp)
    2cb0:	df000217 	ldw	fp,8(sp)
    2cb4:	dc400117 	ldw	r17,4(sp)
    2cb8:	dc000017 	ldw	r16,0(sp)
    2cbc:	dec00404 	addi	sp,sp,16
    2cc0:	f800283a 	ret

00002cc4 <GetCenterFrequency>:
 * This where the mel-frequency scaling occurs. Filters are specified so that their
 * center frequencies are equally spaced on the mel scale
 * Used for internal computation only - not the be called directly
 */
double GetCenterFrequency(unsigned int filterBand)
{
    2cc4:	defff904 	addi	sp,sp,-28
    2cc8:	dfc00615 	stw	ra,24(sp)
    2ccc:	df000515 	stw	fp,20(sp)
    2cd0:	df000504 	addi	fp,sp,20
    2cd4:	e13ffb15 	stw	r4,-20(fp)
	double centerFrequency = 0.0f;
    2cd8:	e03ffe15 	stw	zero,-8(fp)
    2cdc:	e03fff15 	stw	zero,-4(fp)
	double exponent;

	if(filterBand == 0)
    2ce0:	e0bffb17 	ldw	r2,-20(fp)
    2ce4:	1000031e 	bne	r2,zero,2cf4 <GetCenterFrequency+0x30>
	{
		centerFrequency = 0;
    2ce8:	e03ffe15 	stw	zero,-8(fp)
    2cec:	e03fff15 	stw	zero,-4(fp)
    2cf0:	00003006 	br	2db4 <GetCenterFrequency+0xf0>
	}
	else if(filterBand >= 1 && filterBand <= 14)
    2cf4:	e0bffb17 	ldw	r2,-20(fp)
    2cf8:	10001126 	beq	r2,zero,2d40 <GetCenterFrequency+0x7c>
    2cfc:	e0bffb17 	ldw	r2,-20(fp)
    2d00:	108003e8 	cmpgeui	r2,r2,15
    2d04:	10000e1e 	bne	r2,zero,2d40 <GetCenterFrequency+0x7c>
	{
		centerFrequency = (200.0f * filterBand) / 3.0f;
    2d08:	e13ffb17 	ldw	r4,-20(fp)
    2d0c:	00073c00 	call	73c0 <__floatunsisf>
    2d10:	1007883a 	mov	r3,r2
    2d14:	0090d234 	movhi	r2,17224
    2d18:	1887ff32 	custom	252,r3,r3,r2
    2d1c:	00901034 	movhi	r2,16448
    2d20:	1885fff2 	custom	255,r2,r3,r2
    2d24:	1009883a 	mov	r4,r2
    2d28:	0009be40 	call	9be4 <__extendsfdf2>
    2d2c:	1009883a 	mov	r4,r2
    2d30:	180b883a 	mov	r5,r3
    2d34:	e13ffe15 	stw	r4,-8(fp)
    2d38:	e17fff15 	stw	r5,-4(fp)
    2d3c:	00001d06 	br	2db4 <GetCenterFrequency+0xf0>
	}
	else
	{
		exponent = filterBand - 14.0f;
    2d40:	e13ffb17 	ldw	r4,-20(fp)
    2d44:	00073c00 	call	73c0 <__floatunsisf>
    2d48:	1007883a 	mov	r3,r2
    2d4c:	00905834 	movhi	r2,16736
    2d50:	1885ffb2 	custom	254,r2,r3,r2
    2d54:	1009883a 	mov	r4,r2
    2d58:	0009be40 	call	9be4 <__extendsfdf2>
    2d5c:	1009883a 	mov	r4,r2
    2d60:	180b883a 	mov	r5,r3
    2d64:	e13ffc15 	stw	r4,-16(fp)
    2d68:	e17ffd15 	stw	r5,-12(fp)
		centerFrequency = pow(1.0711703, exponent);
    2d6c:	e1bffc17 	ldw	r6,-16(fp)
    2d70:	e1fffd17 	ldw	r7,-12(fp)
    2d74:	01200034 	movhi	r4,32768
    2d78:	014ffc74 	movhi	r5,16369
    2d7c:	2948e0c4 	addi	r5,r5,9091
    2d80:	00031fc0 	call	31fc <pow>
    2d84:	e0bffe15 	stw	r2,-8(fp)
    2d88:	e0ffff15 	stw	r3,-4(fp)
		centerFrequency *= 1073.4;
    2d8c:	01a80034 	movhi	r6,40960
    2d90:	01d02474 	movhi	r7,16529
    2d94:	39f16644 	addi	r7,r7,-14951
    2d98:	e13ffe17 	ldw	r4,-8(fp)
    2d9c:	e17fff17 	ldw	r5,-4(fp)
    2da0:	00089100 	call	8910 <__muldf3>
    2da4:	1009883a 	mov	r4,r2
    2da8:	180b883a 	mov	r5,r3
    2dac:	e13ffe15 	stw	r4,-8(fp)
    2db0:	e17fff15 	stw	r5,-4(fp)
	}

	return centerFrequency;
    2db4:	e0bffe17 	ldw	r2,-8(fp)
    2db8:	e0ffff17 	ldw	r3,-4(fp)
    2dbc:	1009883a 	mov	r4,r2
    2dc0:	180b883a 	mov	r5,r3
}
    2dc4:	2005883a 	mov	r2,r4
    2dc8:	2807883a 	mov	r3,r5
    2dcc:	e037883a 	mov	sp,fp
    2dd0:	dfc00117 	ldw	ra,4(sp)
    2dd4:	df000017 	ldw	fp,0(sp)
    2dd8:	dec00204 	addi	sp,sp,8
    2ddc:	f800283a 	ret

00002de0 <cos>:
    2de0:	00a00034 	movhi	r2,32768
    2de4:	10bfffc4 	addi	r2,r2,-1
    2de8:	00cffa74 	movhi	r3,16361
    2dec:	2884703a 	and	r2,r5,r2
    2df0:	18c87ec4 	addi	r3,r3,8699
    2df4:	18801a0e 	bge	r3,r2,2e60 <cos+0x80>
    2df8:	defffa04 	addi	sp,sp,-24
    2dfc:	dfc00515 	stw	ra,20(sp)
    2e00:	00dffc34 	movhi	r3,32752
    2e04:	10c00616 	blt	r2,r3,2e20 <cos+0x40>
    2e08:	280f883a 	mov	r7,r5
    2e0c:	200d883a 	mov	r6,r4
    2e10:	00090bc0 	call	90bc <__subdf3>
    2e14:	dfc00517 	ldw	ra,20(sp)
    2e18:	dec00604 	addi	sp,sp,24
    2e1c:	f800283a 	ret
    2e20:	d9800104 	addi	r6,sp,4
    2e24:	0004cf80 	call	4cf8 <__ieee754_rem_pio2>
    2e28:	108000cc 	andi	r2,r2,3
    2e2c:	10c00060 	cmpeqi	r3,r2,1
    2e30:	d9800317 	ldw	r6,12(sp)
    2e34:	d9c00417 	ldw	r7,16(sp)
    2e38:	d9000117 	ldw	r4,4(sp)
    2e3c:	d9400217 	ldw	r5,8(sp)
    2e40:	18000a1e 	bne	r3,zero,2e6c <cos+0x8c>
    2e44:	10c000a0 	cmpeqi	r3,r2,2
    2e48:	18000e1e 	bne	r3,zero,2e84 <cos+0xa4>
    2e4c:	10000b26 	beq	r2,zero,2e7c <cos+0x9c>
    2e50:	00800044 	movi	r2,1
    2e54:	d8800015 	stw	r2,0(sp)
    2e58:	00068700 	call	6870 <__kernel_sin>
    2e5c:	003fed06 	br	2e14 <cos+0x34>
    2e60:	000d883a 	mov	r6,zero
    2e64:	000f883a 	mov	r7,zero
    2e68:	00056b01 	jmpi	56b0 <__kernel_cos>
    2e6c:	d8800015 	stw	r2,0(sp)
    2e70:	00068700 	call	6870 <__kernel_sin>
    2e74:	18e0003c 	xorhi	r3,r3,32768
    2e78:	003fe606 	br	2e14 <cos+0x34>
    2e7c:	00056b00 	call	56b0 <__kernel_cos>
    2e80:	003fe406 	br	2e14 <cos+0x34>
    2e84:	00056b00 	call	56b0 <__kernel_cos>
    2e88:	18e0003c 	xorhi	r3,r3,32768
    2e8c:	003fe106 	br	2e14 <cos+0x34>

00002e90 <floor>:
    2e90:	280fd53a 	srai	r7,r5,20
    2e94:	defffb04 	addi	sp,sp,-20
    2e98:	dc800215 	stw	r18,8(sp)
    2e9c:	39c1ffcc 	andi	r7,r7,2047
    2ea0:	3cbf0044 	addi	r18,r7,-1023
    2ea4:	dc400115 	stw	r17,4(sp)
    2ea8:	dc000015 	stw	r16,0(sp)
    2eac:	dfc00415 	stw	ra,16(sp)
    2eb0:	dcc00315 	stw	r19,12(sp)
    2eb4:	90800508 	cmpgei	r2,r18,20
    2eb8:	2821883a 	mov	r16,r5
    2ebc:	200d883a 	mov	r6,r4
    2ec0:	2023883a 	mov	r17,r4
    2ec4:	10002b1e 	bne	r2,zero,2f74 <floor+0xe4>
    2ec8:	90001b16 	blt	r18,zero,2f38 <floor+0xa8>
    2ecc:	00800434 	movhi	r2,16
    2ed0:	10bfffc4 	addi	r2,r2,-1
    2ed4:	14a7d83a 	sra	r19,r2,r18
    2ed8:	2cc4703a 	and	r2,r5,r19
    2edc:	1104b03a 	or	r2,r2,r4
    2ee0:	10002826 	beq	r2,zero,2f84 <floor+0xf4>
    2ee4:	01a20034 	movhi	r6,34816
    2ee8:	01df8e34 	movhi	r7,32312
    2eec:	319d6704 	addi	r6,r6,30108
    2ef0:	39f90f04 	addi	r7,r7,-7108
    2ef4:	00074bc0 	call	74bc <__adddf3>
    2ef8:	000d883a 	mov	r6,zero
    2efc:	000f883a 	mov	r7,zero
    2f00:	1009883a 	mov	r4,r2
    2f04:	180b883a 	mov	r5,r3
    2f08:	00087400 	call	8740 <__gedf2>
    2f0c:	0080070e 	bge	zero,r2,2f2c <floor+0x9c>
    2f10:	8000030e 	bge	r16,zero,2f20 <floor+0x90>
    2f14:	00800434 	movhi	r2,16
    2f18:	14a5d83a 	sra	r18,r2,r18
    2f1c:	9421883a 	add	r16,r18,r16
    2f20:	04c4303a 	nor	r2,zero,r19
    2f24:	80a0703a 	and	r16,r16,r2
    2f28:	0023883a 	mov	r17,zero
    2f2c:	8805883a 	mov	r2,r17
    2f30:	8007883a 	mov	r3,r16
    2f34:	00001506 	br	2f8c <floor+0xfc>
    2f38:	01a20034 	movhi	r6,34816
    2f3c:	01df8e34 	movhi	r7,32312
    2f40:	319d6704 	addi	r6,r6,30108
    2f44:	39f90f04 	addi	r7,r7,-7108
    2f48:	00074bc0 	call	74bc <__adddf3>
    2f4c:	000d883a 	mov	r6,zero
    2f50:	000f883a 	mov	r7,zero
    2f54:	1009883a 	mov	r4,r2
    2f58:	180b883a 	mov	r5,r3
    2f5c:	00087400 	call	8740 <__gedf2>
    2f60:	00bff20e 	bge	zero,r2,2f2c <floor+0x9c>
    2f64:	80002a16 	blt	r16,zero,3010 <floor+0x180>
    2f68:	0023883a 	mov	r17,zero
    2f6c:	0021883a 	mov	r16,zero
    2f70:	003fee06 	br	2f2c <floor+0x9c>
    2f74:	90800d10 	cmplti	r2,r18,52
    2f78:	10000b1e 	bne	r2,zero,2fa8 <floor+0x118>
    2f7c:	94810018 	cmpnei	r18,r18,1024
    2f80:	90001d26 	beq	r18,zero,2ff8 <floor+0x168>
    2f84:	3005883a 	mov	r2,r6
    2f88:	8007883a 	mov	r3,r16
    2f8c:	dfc00417 	ldw	ra,16(sp)
    2f90:	dcc00317 	ldw	r19,12(sp)
    2f94:	dc800217 	ldw	r18,8(sp)
    2f98:	dc400117 	ldw	r17,4(sp)
    2f9c:	dc000017 	ldw	r16,0(sp)
    2fa0:	dec00504 	addi	sp,sp,20
    2fa4:	f800283a 	ret
    2fa8:	39fefb44 	addi	r7,r7,-1043
    2fac:	04ffffc4 	movi	r19,-1
    2fb0:	99e6d83a 	srl	r19,r19,r7
    2fb4:	9904703a 	and	r2,r19,r4
    2fb8:	10001226 	beq	r2,zero,3004 <floor+0x174>
    2fbc:	01a20034 	movhi	r6,34816
    2fc0:	01df8e34 	movhi	r7,32312
    2fc4:	319d6704 	addi	r6,r6,30108
    2fc8:	39f90f04 	addi	r7,r7,-7108
    2fcc:	00074bc0 	call	74bc <__adddf3>
    2fd0:	000d883a 	mov	r6,zero
    2fd4:	000f883a 	mov	r7,zero
    2fd8:	1009883a 	mov	r4,r2
    2fdc:	180b883a 	mov	r5,r3
    2fe0:	00087400 	call	8740 <__gedf2>
    2fe4:	00bfd10e 	bge	zero,r2,2f2c <floor+0x9c>
    2fe8:	80001116 	blt	r16,zero,3030 <floor+0x1a0>
    2fec:	04ce303a 	nor	r7,zero,r19
    2ff0:	89e2703a 	and	r17,r17,r7
    2ff4:	003fcd06 	br	2f2c <floor+0x9c>
    2ff8:	280f883a 	mov	r7,r5
    2ffc:	00074bc0 	call	74bc <__adddf3>
    3000:	003fe206 	br	2f8c <floor+0xfc>
    3004:	2807883a 	mov	r3,r5
    3008:	2005883a 	mov	r2,r4
    300c:	003fdf06 	br	2f8c <floor+0xfc>
    3010:	00a00034 	movhi	r2,32768
    3014:	10bfffc4 	addi	r2,r2,-1
    3018:	8084703a 	and	r2,r16,r2
    301c:	1462b03a 	or	r17,r2,r17
    3020:	88000e26 	beq	r17,zero,305c <floor+0x1cc>
    3024:	0023883a 	mov	r17,zero
    3028:	042ffc34 	movhi	r16,49136
    302c:	003fbf06 	br	2f2c <floor+0x9c>
    3030:	90800518 	cmpnei	r2,r18,20
    3034:	10000b26 	beq	r2,zero,3064 <floor+0x1d4>
    3038:	00800d04 	movi	r2,52
    303c:	14a5c83a 	sub	r18,r2,r18
    3040:	00800044 	movi	r2,1
    3044:	1484983a 	sll	r2,r2,r18
    3048:	1445883a 	add	r2,r2,r17
    304c:	1440072e 	bgeu	r2,r17,306c <floor+0x1dc>
    3050:	84000044 	addi	r16,r16,1
    3054:	1023883a 	mov	r17,r2
    3058:	003fe406 	br	2fec <floor+0x15c>
    305c:	0023883a 	mov	r17,zero
    3060:	003fb206 	br	2f2c <floor+0x9c>
    3064:	84000044 	addi	r16,r16,1
    3068:	003fe006 	br	2fec <floor+0x15c>
    306c:	1023883a 	mov	r17,r2
    3070:	003fde06 	br	2fec <floor+0x15c>

00003074 <sin>:
    3074:	00a00034 	movhi	r2,32768
    3078:	defffa04 	addi	sp,sp,-24
    307c:	10bfffc4 	addi	r2,r2,-1
    3080:	00cffa74 	movhi	r3,16361
    3084:	dfc00515 	stw	ra,20(sp)
    3088:	2884703a 	and	r2,r5,r2
    308c:	18c87ec4 	addi	r3,r3,8699
    3090:	1880170e 	bge	r3,r2,30f0 <sin+0x7c>
    3094:	00dffc34 	movhi	r3,32752
    3098:	10c00616 	blt	r2,r3,30b4 <sin+0x40>
    309c:	280f883a 	mov	r7,r5
    30a0:	200d883a 	mov	r6,r4
    30a4:	00090bc0 	call	90bc <__subdf3>
    30a8:	dfc00517 	ldw	ra,20(sp)
    30ac:	dec00604 	addi	sp,sp,24
    30b0:	f800283a 	ret
    30b4:	d9800104 	addi	r6,sp,4
    30b8:	0004cf80 	call	4cf8 <__ieee754_rem_pio2>
    30bc:	108000cc 	andi	r2,r2,3
    30c0:	10c00060 	cmpeqi	r3,r2,1
    30c4:	d9800317 	ldw	r6,12(sp)
    30c8:	d9c00417 	ldw	r7,16(sp)
    30cc:	d9000117 	ldw	r4,4(sp)
    30d0:	d9400217 	ldw	r5,8(sp)
    30d4:	18000d1e 	bne	r3,zero,310c <sin+0x98>
    30d8:	10c000a0 	cmpeqi	r3,r2,2
    30dc:	1800111e 	bne	r3,zero,3124 <sin+0xb0>
    30e0:	10000c26 	beq	r2,zero,3114 <sin+0xa0>
    30e4:	00056b00 	call	56b0 <__kernel_cos>
    30e8:	18e0003c 	xorhi	r3,r3,32768
    30ec:	003fee06 	br	30a8 <sin+0x34>
    30f0:	d8000015 	stw	zero,0(sp)
    30f4:	000d883a 	mov	r6,zero
    30f8:	000f883a 	mov	r7,zero
    30fc:	00068700 	call	6870 <__kernel_sin>
    3100:	dfc00517 	ldw	ra,20(sp)
    3104:	dec00604 	addi	sp,sp,24
    3108:	f800283a 	ret
    310c:	00056b00 	call	56b0 <__kernel_cos>
    3110:	003fe506 	br	30a8 <sin+0x34>
    3114:	00800044 	movi	r2,1
    3118:	d8800015 	stw	r2,0(sp)
    311c:	00068700 	call	6870 <__kernel_sin>
    3120:	003fe106 	br	30a8 <sin+0x34>
    3124:	00800044 	movi	r2,1
    3128:	d8800015 	stw	r2,0(sp)
    312c:	00068700 	call	6870 <__kernel_sin>
    3130:	18e0003c 	xorhi	r3,r3,32768
    3134:	003fdc06 	br	30a8 <sin+0x34>

00003138 <log>:
    3138:	defffb04 	addi	sp,sp,-20
    313c:	dcc00315 	stw	r19,12(sp)
    3140:	dc800215 	stw	r18,8(sp)
    3144:	dc400115 	stw	r17,4(sp)
    3148:	dc000015 	stw	r16,0(sp)
    314c:	2023883a 	mov	r17,r4
    3150:	2821883a 	mov	r16,r5
    3154:	dfc00415 	stw	ra,16(sp)
    3158:	00035640 	call	3564 <__ieee754_log>
    315c:	880d883a 	mov	r6,r17
    3160:	800f883a 	mov	r7,r16
    3164:	8809883a 	mov	r4,r17
    3168:	800b883a 	mov	r5,r16
    316c:	1027883a 	mov	r19,r2
    3170:	1825883a 	mov	r18,r3
    3174:	00099c80 	call	99c8 <__unorddf2>
    3178:	1000111e 	bne	r2,zero,31c0 <log+0x88>
    317c:	000d883a 	mov	r6,zero
    3180:	000f883a 	mov	r7,zero
    3184:	8809883a 	mov	r4,r17
    3188:	800b883a 	mov	r5,r16
    318c:	00087400 	call	8740 <__gedf2>
    3190:	00800b16 	blt	zero,r2,31c0 <log+0x88>
    3194:	000d883a 	mov	r6,zero
    3198:	000f883a 	mov	r7,zero
    319c:	8809883a 	mov	r4,r17
    31a0:	800b883a 	mov	r5,r16
    31a4:	00086c00 	call	86c0 <__eqdf2>
    31a8:	10000e1e 	bne	r2,zero,31e4 <log+0xac>
    31ac:	0009ea40 	call	9ea4 <__errno>
    31b0:	00c00884 	movi	r3,34
    31b4:	10c00015 	stw	r3,0(r2)
    31b8:	0027883a 	mov	r19,zero
    31bc:	04bffc34 	movhi	r18,65520
    31c0:	9805883a 	mov	r2,r19
    31c4:	9007883a 	mov	r3,r18
    31c8:	dfc00417 	ldw	ra,16(sp)
    31cc:	dcc00317 	ldw	r19,12(sp)
    31d0:	dc800217 	ldw	r18,8(sp)
    31d4:	dc400117 	ldw	r17,4(sp)
    31d8:	dc000017 	ldw	r16,0(sp)
    31dc:	dec00504 	addi	sp,sp,20
    31e0:	f800283a 	ret
    31e4:	0009ea40 	call	9ea4 <__errno>
    31e8:	00c00844 	movi	r3,33
    31ec:	10c00015 	stw	r3,0(r2)
    31f0:	0027883a 	mov	r19,zero
    31f4:	049ffe34 	movhi	r18,32760
    31f8:	003ff106 	br	31c0 <log+0x88>

000031fc <pow>:
    31fc:	defff704 	addi	sp,sp,-36
    3200:	dd800615 	stw	r22,24(sp)
    3204:	dd000415 	stw	r20,16(sp)
    3208:	dcc00315 	stw	r19,12(sp)
    320c:	dc800215 	stw	r18,8(sp)
    3210:	dc400115 	stw	r17,4(sp)
    3214:	dc000015 	stw	r16,0(sp)
    3218:	3823883a 	mov	r17,r7
    321c:	3021883a 	mov	r16,r6
    3220:	dfc00815 	stw	ra,32(sp)
    3224:	ddc00715 	stw	r23,28(sp)
    3228:	dd400515 	stw	r21,20(sp)
    322c:	202d883a 	mov	r22,r4
    3230:	2825883a 	mov	r18,r5
    3234:	0003bf00 	call	3bf0 <__ieee754_pow>
    3238:	800d883a 	mov	r6,r16
    323c:	880f883a 	mov	r7,r17
    3240:	8009883a 	mov	r4,r16
    3244:	880b883a 	mov	r5,r17
    3248:	1027883a 	mov	r19,r2
    324c:	1829883a 	mov	r20,r3
    3250:	00099c80 	call	99c8 <__unorddf2>
    3254:	10005d1e 	bne	r2,zero,33cc <pow+0x1d0>
    3258:	000d883a 	mov	r6,zero
    325c:	000f883a 	mov	r7,zero
    3260:	b009883a 	mov	r4,r22
    3264:	900b883a 	mov	r5,r18
    3268:	00086c00 	call	86c0 <__eqdf2>
    326c:	10006426 	beq	r2,zero,3400 <pow+0x204>
    3270:	01600034 	movhi	r5,32768
    3274:	297fffc4 	addi	r5,r5,-1
    3278:	a16a703a 	and	r21,r20,r5
    327c:	01dffc34 	movhi	r7,32752
    3280:	01bfffc4 	movi	r6,-1
    3284:	39ffffc4 	addi	r7,r7,-1
    3288:	9809883a 	mov	r4,r19
    328c:	a80b883a 	mov	r5,r21
    3290:	00099c80 	call	99c8 <__unorddf2>
    3294:	1000071e 	bne	r2,zero,32b4 <pow+0xb8>
    3298:	01dffc34 	movhi	r7,32752
    329c:	01bfffc4 	movi	r6,-1
    32a0:	39ffffc4 	addi	r7,r7,-1
    32a4:	9809883a 	mov	r4,r19
    32a8:	a80b883a 	mov	r5,r21
    32ac:	00087400 	call	8740 <__gedf2>
    32b0:	0080200e 	bge	zero,r2,3334 <pow+0x138>
    32b4:	05600034 	movhi	r21,32768
    32b8:	ad7fffc4 	addi	r21,r21,-1
    32bc:	956e703a 	and	r23,r18,r21
    32c0:	01dffc34 	movhi	r7,32752
    32c4:	01bfffc4 	movi	r6,-1
    32c8:	39ffffc4 	addi	r7,r7,-1
    32cc:	b009883a 	mov	r4,r22
    32d0:	b80b883a 	mov	r5,r23
    32d4:	00099c80 	call	99c8 <__unorddf2>
    32d8:	10003c1e 	bne	r2,zero,33cc <pow+0x1d0>
    32dc:	01dffc34 	movhi	r7,32752
    32e0:	01bfffc4 	movi	r6,-1
    32e4:	39ffffc4 	addi	r7,r7,-1
    32e8:	b009883a 	mov	r4,r22
    32ec:	b80b883a 	mov	r5,r23
    32f0:	00087400 	call	8740 <__gedf2>
    32f4:	00803516 	blt	zero,r2,33cc <pow+0x1d0>
    32f8:	8d6a703a 	and	r21,r17,r21
    32fc:	01dffc34 	movhi	r7,32752
    3300:	01bfffc4 	movi	r6,-1
    3304:	39ffffc4 	addi	r7,r7,-1
    3308:	8009883a 	mov	r4,r16
    330c:	a80b883a 	mov	r5,r21
    3310:	00099c80 	call	99c8 <__unorddf2>
    3314:	1000071e 	bne	r2,zero,3334 <pow+0x138>
    3318:	01dffc34 	movhi	r7,32752
    331c:	01bfffc4 	movi	r6,-1
    3320:	39ffffc4 	addi	r7,r7,-1
    3324:	8009883a 	mov	r4,r16
    3328:	a80b883a 	mov	r5,r21
    332c:	00087400 	call	8740 <__gedf2>
    3330:	0080570e 	bge	zero,r2,3490 <pow+0x294>
    3334:	000d883a 	mov	r6,zero
    3338:	000f883a 	mov	r7,zero
    333c:	9809883a 	mov	r4,r19
    3340:	a00b883a 	mov	r5,r20
    3344:	00086c00 	call	86c0 <__eqdf2>
    3348:	1000201e 	bne	r2,zero,33cc <pow+0x1d0>
    334c:	05600034 	movhi	r21,32768
    3350:	ad7fffc4 	addi	r21,r21,-1
    3354:	9564703a 	and	r18,r18,r21
    3358:	01dffc34 	movhi	r7,32752
    335c:	01bfffc4 	movi	r6,-1
    3360:	39ffffc4 	addi	r7,r7,-1
    3364:	b009883a 	mov	r4,r22
    3368:	900b883a 	mov	r5,r18
    336c:	00099c80 	call	99c8 <__unorddf2>
    3370:	1000161e 	bne	r2,zero,33cc <pow+0x1d0>
    3374:	01dffc34 	movhi	r7,32752
    3378:	01bfffc4 	movi	r6,-1
    337c:	39ffffc4 	addi	r7,r7,-1
    3380:	b009883a 	mov	r4,r22
    3384:	900b883a 	mov	r5,r18
    3388:	00087400 	call	8740 <__gedf2>
    338c:	00800f16 	blt	zero,r2,33cc <pow+0x1d0>
    3390:	8d62703a 	and	r17,r17,r21
    3394:	01dffc34 	movhi	r7,32752
    3398:	01bfffc4 	movi	r6,-1
    339c:	39ffffc4 	addi	r7,r7,-1
    33a0:	8009883a 	mov	r4,r16
    33a4:	880b883a 	mov	r5,r17
    33a8:	00099c80 	call	99c8 <__unorddf2>
    33ac:	1000071e 	bne	r2,zero,33cc <pow+0x1d0>
    33b0:	01dffc34 	movhi	r7,32752
    33b4:	01bfffc4 	movi	r6,-1
    33b8:	39ffffc4 	addi	r7,r7,-1
    33bc:	8009883a 	mov	r4,r16
    33c0:	880b883a 	mov	r5,r17
    33c4:	00087400 	call	8740 <__gedf2>
    33c8:	00802a0e 	bge	zero,r2,3474 <pow+0x278>
    33cc:	9805883a 	mov	r2,r19
    33d0:	a007883a 	mov	r3,r20
    33d4:	dfc00817 	ldw	ra,32(sp)
    33d8:	ddc00717 	ldw	r23,28(sp)
    33dc:	dd800617 	ldw	r22,24(sp)
    33e0:	dd400517 	ldw	r21,20(sp)
    33e4:	dd000417 	ldw	r20,16(sp)
    33e8:	dcc00317 	ldw	r19,12(sp)
    33ec:	dc800217 	ldw	r18,8(sp)
    33f0:	dc400117 	ldw	r17,4(sp)
    33f4:	dc000017 	ldw	r16,0(sp)
    33f8:	dec00904 	addi	sp,sp,36
    33fc:	f800283a 	ret
    3400:	000d883a 	mov	r6,zero
    3404:	000f883a 	mov	r7,zero
    3408:	8009883a 	mov	r4,r16
    340c:	880b883a 	mov	r5,r17
    3410:	00086c00 	call	86c0 <__eqdf2>
    3414:	10001b26 	beq	r2,zero,3484 <pow+0x288>
    3418:	01600034 	movhi	r5,32768
    341c:	297fffc4 	addi	r5,r5,-1
    3420:	8964703a 	and	r18,r17,r5
    3424:	01dffc34 	movhi	r7,32752
    3428:	01bfffc4 	movi	r6,-1
    342c:	39ffffc4 	addi	r7,r7,-1
    3430:	8009883a 	mov	r4,r16
    3434:	900b883a 	mov	r5,r18
    3438:	00099c80 	call	99c8 <__unorddf2>
    343c:	103fe31e 	bne	r2,zero,33cc <pow+0x1d0>
    3440:	01dffc34 	movhi	r7,32752
    3444:	01bfffc4 	movi	r6,-1
    3448:	39ffffc4 	addi	r7,r7,-1
    344c:	8009883a 	mov	r4,r16
    3450:	900b883a 	mov	r5,r18
    3454:	00087400 	call	8740 <__gedf2>
    3458:	00bfdc16 	blt	zero,r2,33cc <pow+0x1d0>
    345c:	000d883a 	mov	r6,zero
    3460:	000f883a 	mov	r7,zero
    3464:	8009883a 	mov	r4,r16
    3468:	880b883a 	mov	r5,r17
    346c:	00088280 	call	8828 <__ledf2>
    3470:	103fd60e 	bge	r2,zero,33cc <pow+0x1d0>
    3474:	0009ea40 	call	9ea4 <__errno>
    3478:	00c00884 	movi	r3,34
    347c:	10c00015 	stw	r3,0(r2)
    3480:	003fd206 	br	33cc <pow+0x1d0>
    3484:	0027883a 	mov	r19,zero
    3488:	050ffc34 	movhi	r20,16368
    348c:	003fcf06 	br	33cc <pow+0x1d0>
    3490:	980d883a 	mov	r6,r19
    3494:	a00f883a 	mov	r7,r20
    3498:	9809883a 	mov	r4,r19
    349c:	a00b883a 	mov	r5,r20
    34a0:	00099c80 	call	99c8 <__unorddf2>
    34a4:	103ff326 	beq	r2,zero,3474 <pow+0x278>
    34a8:	0009ea40 	call	9ea4 <__errno>
    34ac:	00c00844 	movi	r3,33
    34b0:	10c00015 	stw	r3,0(r2)
    34b4:	003fc506 	br	33cc <pow+0x1d0>

000034b8 <sqrt>:
    34b8:	defffb04 	addi	sp,sp,-20
    34bc:	dcc00315 	stw	r19,12(sp)
    34c0:	dc800215 	stw	r18,8(sp)
    34c4:	dc400115 	stw	r17,4(sp)
    34c8:	dc000015 	stw	r16,0(sp)
    34cc:	2023883a 	mov	r17,r4
    34d0:	2821883a 	mov	r16,r5
    34d4:	dfc00415 	stw	ra,16(sp)
    34d8:	00054440 	call	5444 <__ieee754_sqrt>
    34dc:	880d883a 	mov	r6,r17
    34e0:	800f883a 	mov	r7,r16
    34e4:	8809883a 	mov	r4,r17
    34e8:	800b883a 	mov	r5,r16
    34ec:	1027883a 	mov	r19,r2
    34f0:	1825883a 	mov	r18,r3
    34f4:	00099c80 	call	99c8 <__unorddf2>
    34f8:	1000061e 	bne	r2,zero,3514 <sqrt+0x5c>
    34fc:	000d883a 	mov	r6,zero
    3500:	000f883a 	mov	r7,zero
    3504:	8809883a 	mov	r4,r17
    3508:	800b883a 	mov	r5,r16
    350c:	00088280 	call	8828 <__ledf2>
    3510:	10000916 	blt	r2,zero,3538 <sqrt+0x80>
    3514:	9805883a 	mov	r2,r19
    3518:	9007883a 	mov	r3,r18
    351c:	dfc00417 	ldw	ra,16(sp)
    3520:	dcc00317 	ldw	r19,12(sp)
    3524:	dc800217 	ldw	r18,8(sp)
    3528:	dc400117 	ldw	r17,4(sp)
    352c:	dc000017 	ldw	r16,0(sp)
    3530:	dec00504 	addi	sp,sp,20
    3534:	f800283a 	ret
    3538:	0009ea40 	call	9ea4 <__errno>
    353c:	00c00844 	movi	r3,33
    3540:	10c00015 	stw	r3,0(r2)
    3544:	000d883a 	mov	r6,zero
    3548:	000f883a 	mov	r7,zero
    354c:	0009883a 	mov	r4,zero
    3550:	000b883a 	mov	r5,zero
    3554:	0007dac0 	call	7dac <__divdf3>
    3558:	1027883a 	mov	r19,r2
    355c:	1825883a 	mov	r18,r3
    3560:	003fec06 	br	3514 <sqrt+0x5c>

00003564 <__ieee754_log>:
    3564:	defff204 	addi	sp,sp,-56
    3568:	dfc00d15 	stw	ra,52(sp)
    356c:	df000c15 	stw	fp,48(sp)
    3570:	ddc00b15 	stw	r23,44(sp)
    3574:	dd800a15 	stw	r22,40(sp)
    3578:	dd400915 	stw	r21,36(sp)
    357c:	dd000815 	stw	r20,32(sp)
    3580:	dcc00715 	stw	r19,28(sp)
    3584:	dc800615 	stw	r18,24(sp)
    3588:	dc400515 	stw	r17,20(sp)
    358c:	dc000415 	stw	r16,16(sp)
    3590:	01800434 	movhi	r6,16
    3594:	2005883a 	mov	r2,r4
    3598:	280f883a 	mov	r7,r5
    359c:	2980690e 	bge	r5,r6,3744 <__ieee754_log+0x1e0>
    35a0:	00e00034 	movhi	r3,32768
    35a4:	18ffffc4 	addi	r3,r3,-1
    35a8:	28c6703a 	and	r3,r5,r3
    35ac:	1906b03a 	or	r3,r3,r4
    35b0:	18011d26 	beq	r3,zero,3a28 <__ieee754_log+0x4c4>
    35b4:	28015c16 	blt	r5,zero,3b28 <__ieee754_log+0x5c4>
    35b8:	000d883a 	mov	r6,zero
    35bc:	01d0d434 	movhi	r7,17232
    35c0:	00089100 	call	8910 <__muldf3>
    35c4:	011ffc34 	movhi	r4,32752
    35c8:	180f883a 	mov	r7,r3
    35cc:	01bff284 	movi	r6,-54
    35d0:	1900600e 	bge	r3,r4,3754 <__ieee754_log+0x1f0>
    35d4:	04000434 	movhi	r16,16
    35d8:	843fffc4 	addi	r16,r16,-1
    35dc:	01400274 	movhi	r5,9
    35e0:	1c24703a 	and	r18,r3,r16
    35e4:	2957d904 	addi	r5,r5,24420
    35e8:	1807d53a 	srai	r3,r3,20
    35ec:	914b883a 	add	r5,r18,r5
    35f0:	2940042c 	andhi	r5,r5,16
    35f4:	2827d53a 	srai	r19,r5,20
    35f8:	18ff0044 	addi	r3,r3,-1023
    35fc:	294ffc3c 	xorhi	r5,r5,16368
    3600:	1987883a 	add	r3,r3,r6
    3604:	2c8ab03a 	or	r5,r5,r18
    3608:	000d883a 	mov	r6,zero
    360c:	01cffc34 	movhi	r7,16368
    3610:	1009883a 	mov	r4,r2
    3614:	98e7883a 	add	r19,r19,r3
    3618:	00090bc0 	call	90bc <__subdf3>
    361c:	91400084 	addi	r5,r18,2
    3620:	2c0a703a 	and	r5,r5,r16
    3624:	294000c8 	cmpgei	r5,r5,3
    3628:	000d883a 	mov	r6,zero
    362c:	1023883a 	mov	r17,r2
    3630:	1821883a 	mov	r16,r3
    3634:	2800571e 	bne	r5,zero,3794 <__ieee754_log+0x230>
    3638:	000f883a 	mov	r7,zero
    363c:	1009883a 	mov	r4,r2
    3640:	180b883a 	mov	r5,r3
    3644:	00086c00 	call	86c0 <__eqdf2>
    3648:	1000fd26 	beq	r2,zero,3a40 <__ieee754_log+0x4dc>
    364c:	01955574 	movhi	r6,21845
    3650:	01cff574 	movhi	r7,16341
    3654:	8809883a 	mov	r4,r17
    3658:	800b883a 	mov	r5,r16
    365c:	31955544 	addi	r6,r6,21845
    3660:	39d55544 	addi	r7,r7,21845
    3664:	00089100 	call	8910 <__muldf3>
    3668:	100d883a 	mov	r6,r2
    366c:	180f883a 	mov	r7,r3
    3670:	0009883a 	mov	r4,zero
    3674:	014ff834 	movhi	r5,16352
    3678:	00090bc0 	call	90bc <__subdf3>
    367c:	880d883a 	mov	r6,r17
    3680:	800f883a 	mov	r7,r16
    3684:	8809883a 	mov	r4,r17
    3688:	800b883a 	mov	r5,r16
    368c:	1029883a 	mov	r20,r2
    3690:	1825883a 	mov	r18,r3
    3694:	00089100 	call	8910 <__muldf3>
    3698:	a009883a 	mov	r4,r20
    369c:	900b883a 	mov	r5,r18
    36a0:	100d883a 	mov	r6,r2
    36a4:	180f883a 	mov	r7,r3
    36a8:	00089100 	call	8910 <__muldf3>
    36ac:	1029883a 	mov	r20,r2
    36b0:	1825883a 	mov	r18,r3
    36b4:	98011626 	beq	r19,zero,3b10 <__ieee754_log+0x5ac>
    36b8:	9809883a 	mov	r4,r19
    36bc:	0009a9c0 	call	9a9c <__floatsidf>
    36c0:	01cff9b4 	movhi	r7,16358
    36c4:	01bfb834 	movhi	r6,65248
    36c8:	39cb9084 	addi	r7,r7,11842
    36cc:	1009883a 	mov	r4,r2
    36d0:	180b883a 	mov	r5,r3
    36d4:	102b883a 	mov	r21,r2
    36d8:	1827883a 	mov	r19,r3
    36dc:	00089100 	call	8910 <__muldf3>
    36e0:	018d5e74 	movhi	r6,13689
    36e4:	01cf7ab4 	movhi	r7,15850
    36e8:	318f1d84 	addi	r6,r6,15478
    36ec:	39ce7bc4 	addi	r7,r7,14831
    36f0:	a809883a 	mov	r4,r21
    36f4:	980b883a 	mov	r5,r19
    36f8:	102b883a 	mov	r21,r2
    36fc:	1827883a 	mov	r19,r3
    3700:	00089100 	call	8910 <__muldf3>
    3704:	a009883a 	mov	r4,r20
    3708:	900b883a 	mov	r5,r18
    370c:	100d883a 	mov	r6,r2
    3710:	180f883a 	mov	r7,r3
    3714:	00090bc0 	call	90bc <__subdf3>
    3718:	880d883a 	mov	r6,r17
    371c:	800f883a 	mov	r7,r16
    3720:	1009883a 	mov	r4,r2
    3724:	180b883a 	mov	r5,r3
    3728:	00090bc0 	call	90bc <__subdf3>
    372c:	100d883a 	mov	r6,r2
    3730:	180f883a 	mov	r7,r3
    3734:	a809883a 	mov	r4,r21
    3738:	980b883a 	mov	r5,r19
    373c:	00090bc0 	call	90bc <__subdf3>
    3740:	00000806 	br	3764 <__ieee754_log+0x200>
    3744:	2807883a 	mov	r3,r5
    3748:	011ffc34 	movhi	r4,32752
    374c:	000d883a 	mov	r6,zero
    3750:	193fa016 	blt	r3,r4,35d4 <__ieee754_log+0x70>
    3754:	100d883a 	mov	r6,r2
    3758:	1009883a 	mov	r4,r2
    375c:	380b883a 	mov	r5,r7
    3760:	00074bc0 	call	74bc <__adddf3>
    3764:	dfc00d17 	ldw	ra,52(sp)
    3768:	df000c17 	ldw	fp,48(sp)
    376c:	ddc00b17 	ldw	r23,44(sp)
    3770:	dd800a17 	ldw	r22,40(sp)
    3774:	dd400917 	ldw	r21,36(sp)
    3778:	dd000817 	ldw	r20,32(sp)
    377c:	dcc00717 	ldw	r19,28(sp)
    3780:	dc800617 	ldw	r18,24(sp)
    3784:	dc400517 	ldw	r17,20(sp)
    3788:	dc000417 	ldw	r16,16(sp)
    378c:	dec00e04 	addi	sp,sp,56
    3790:	f800283a 	ret
    3794:	01d00034 	movhi	r7,16384
    3798:	1009883a 	mov	r4,r2
    379c:	180b883a 	mov	r5,r3
    37a0:	00074bc0 	call	74bc <__adddf3>
    37a4:	100d883a 	mov	r6,r2
    37a8:	180f883a 	mov	r7,r3
    37ac:	800b883a 	mov	r5,r16
    37b0:	8809883a 	mov	r4,r17
    37b4:	0007dac0 	call	7dac <__divdf3>
    37b8:	9809883a 	mov	r4,r19
    37bc:	102d883a 	mov	r22,r2
    37c0:	182b883a 	mov	r21,r3
    37c4:	0009a9c0 	call	9a9c <__floatsidf>
    37c8:	b00d883a 	mov	r6,r22
    37cc:	a80f883a 	mov	r7,r21
    37d0:	b009883a 	mov	r4,r22
    37d4:	a80b883a 	mov	r5,r21
    37d8:	1039883a 	mov	fp,r2
    37dc:	d8c00315 	stw	r3,12(sp)
    37e0:	00089100 	call	8910 <__muldf3>
    37e4:	1015883a 	mov	r10,r2
    37e8:	00bffeb4 	movhi	r2,65530
    37ec:	10bae184 	addi	r2,r2,-5242
    37f0:	9097883a 	add	r11,r18,r2
    37f4:	500d883a 	mov	r6,r10
    37f8:	5009883a 	mov	r4,r10
    37fc:	180f883a 	mov	r7,r3
    3800:	180b883a 	mov	r5,r3
    3804:	dac00215 	stw	r11,8(sp)
    3808:	da800115 	stw	r10,4(sp)
    380c:	d8c00015 	stw	r3,0(sp)
    3810:	00089100 	call	8910 <__muldf3>
    3814:	01b7cfb4 	movhi	r6,57150
    3818:	01cff0f4 	movhi	r7,16323
    381c:	31949104 	addi	r6,r6,21060
    3820:	39fc4484 	addi	r7,r7,-3822
    3824:	1009883a 	mov	r4,r2
    3828:	180b883a 	mov	r5,r3
    382c:	1829883a 	mov	r20,r3
    3830:	102f883a 	mov	r23,r2
    3834:	00089100 	call	8910 <__muldf3>
    3838:	01a5b2f4 	movhi	r6,38603
    383c:	01cff1f4 	movhi	r7,16327
    3840:	3180f784 	addi	r6,r6,990
    3844:	39d19904 	addi	r7,r7,18020
    3848:	1009883a 	mov	r4,r2
    384c:	180b883a 	mov	r5,r3
    3850:	00074bc0 	call	74bc <__adddf3>
    3854:	a00f883a 	mov	r7,r20
    3858:	b80d883a 	mov	r6,r23
    385c:	1009883a 	mov	r4,r2
    3860:	180b883a 	mov	r5,r3
    3864:	00089100 	call	8910 <__muldf3>
    3868:	01a508f4 	movhi	r6,37923
    386c:	01cff4b4 	movhi	r7,16338
    3870:	31a4d644 	addi	r6,r6,-27815
    3874:	39d24904 	addi	r7,r7,18724
    3878:	1009883a 	mov	r4,r2
    387c:	180b883a 	mov	r5,r3
    3880:	00074bc0 	call	74bc <__adddf3>
    3884:	a00f883a 	mov	r7,r20
    3888:	b80d883a 	mov	r6,r23
    388c:	1009883a 	mov	r4,r2
    3890:	180b883a 	mov	r5,r3
    3894:	00089100 	call	8910 <__muldf3>
    3898:	01955574 	movhi	r6,21845
    389c:	01cff974 	movhi	r7,16357
    38a0:	319564c4 	addi	r6,r6,21907
    38a4:	39d55544 	addi	r7,r7,21845
    38a8:	1009883a 	mov	r4,r2
    38ac:	180b883a 	mov	r5,r3
    38b0:	00074bc0 	call	74bc <__adddf3>
    38b4:	da800117 	ldw	r10,4(sp)
    38b8:	da400017 	ldw	r9,0(sp)
    38bc:	1009883a 	mov	r4,r2
    38c0:	500d883a 	mov	r6,r10
    38c4:	480f883a 	mov	r7,r9
    38c8:	180b883a 	mov	r5,r3
    38cc:	00089100 	call	8910 <__muldf3>
    38d0:	01b41e74 	movhi	r6,53369
    38d4:	01cff134 	movhi	r7,16324
    38d8:	a00b883a 	mov	r5,r20
    38dc:	31b1a7c4 	addi	r6,r6,-14689
    38e0:	39e68244 	addi	r7,r7,-26103
    38e4:	b809883a 	mov	r4,r23
    38e8:	d8800115 	stw	r2,4(sp)
    38ec:	d8c00015 	stw	r3,0(sp)
    38f0:	00089100 	call	8910 <__muldf3>
    38f4:	018763b4 	movhi	r6,7566
    38f8:	01cff334 	movhi	r7,16332
    38fc:	319e2bc4 	addi	r6,r6,30895
    3900:	39dc7144 	addi	r7,r7,29125
    3904:	1009883a 	mov	r4,r2
    3908:	180b883a 	mov	r5,r3
    390c:	00074bc0 	call	74bc <__adddf3>
    3910:	a00f883a 	mov	r7,r20
    3914:	b80d883a 	mov	r6,r23
    3918:	1009883a 	mov	r4,r2
    391c:	180b883a 	mov	r5,r3
    3920:	00089100 	call	8910 <__muldf3>
    3924:	01a66634 	movhi	r6,39320
    3928:	01cff6b4 	movhi	r7,16346
    392c:	31be8104 	addi	r6,r6,-1532
    3930:	39e66644 	addi	r7,r7,-26215
    3934:	1009883a 	mov	r4,r2
    3938:	180b883a 	mov	r5,r3
    393c:	00074bc0 	call	74bc <__adddf3>
    3940:	a00f883a 	mov	r7,r20
    3944:	b80d883a 	mov	r6,r23
    3948:	1009883a 	mov	r4,r2
    394c:	180b883a 	mov	r5,r3
    3950:	00089100 	call	8910 <__muldf3>
    3954:	da800117 	ldw	r10,4(sp)
    3958:	da400017 	ldw	r9,0(sp)
    395c:	100d883a 	mov	r6,r2
    3960:	180f883a 	mov	r7,r3
    3964:	480b883a 	mov	r5,r9
    3968:	5009883a 	mov	r4,r10
    396c:	00074bc0 	call	74bc <__adddf3>
    3970:	dac00217 	ldw	r11,8(sp)
    3974:	014001f4 	movhi	r5,7
    3978:	296e1444 	addi	r5,r5,-18351
    397c:	2ca5c83a 	sub	r18,r5,r18
    3980:	92e4b03a 	or	r18,r18,r11
    3984:	1829883a 	mov	r20,r3
    3988:	0480470e 	bge	zero,r18,3aa8 <__ieee754_log+0x544>
    398c:	000d883a 	mov	r6,zero
    3990:	01cff834 	movhi	r7,16352
    3994:	8809883a 	mov	r4,r17
    3998:	800b883a 	mov	r5,r16
    399c:	d8800115 	stw	r2,4(sp)
    39a0:	00089100 	call	8910 <__muldf3>
    39a4:	880d883a 	mov	r6,r17
    39a8:	800f883a 	mov	r7,r16
    39ac:	1009883a 	mov	r4,r2
    39b0:	180b883a 	mov	r5,r3
    39b4:	00089100 	call	8910 <__muldf3>
    39b8:	da000117 	ldw	r8,4(sp)
    39bc:	a00b883a 	mov	r5,r20
    39c0:	100d883a 	mov	r6,r2
    39c4:	4009883a 	mov	r4,r8
    39c8:	180f883a 	mov	r7,r3
    39cc:	1825883a 	mov	r18,r3
    39d0:	d8800015 	stw	r2,0(sp)
    39d4:	00074bc0 	call	74bc <__adddf3>
    39d8:	a80f883a 	mov	r7,r21
    39dc:	b00d883a 	mov	r6,r22
    39e0:	1009883a 	mov	r4,r2
    39e4:	180b883a 	mov	r5,r3
    39e8:	00089100 	call	8910 <__muldf3>
    39ec:	da400017 	ldw	r9,0(sp)
    39f0:	102b883a 	mov	r21,r2
    39f4:	1829883a 	mov	r20,r3
    39f8:	9800531e 	bne	r19,zero,3b48 <__ieee754_log+0x5e4>
    39fc:	4809883a 	mov	r4,r9
    3a00:	900b883a 	mov	r5,r18
    3a04:	100d883a 	mov	r6,r2
    3a08:	180f883a 	mov	r7,r3
    3a0c:	00090bc0 	call	90bc <__subdf3>
    3a10:	100d883a 	mov	r6,r2
    3a14:	180f883a 	mov	r7,r3
    3a18:	8809883a 	mov	r4,r17
    3a1c:	800b883a 	mov	r5,r16
    3a20:	00090bc0 	call	90bc <__subdf3>
    3a24:	003f4f06 	br	3764 <__ieee754_log+0x200>
    3a28:	000d883a 	mov	r6,zero
    3a2c:	000f883a 	mov	r7,zero
    3a30:	0009883a 	mov	r4,zero
    3a34:	0170d434 	movhi	r5,50000
    3a38:	0007dac0 	call	7dac <__divdf3>
    3a3c:	003f4906 	br	3764 <__ieee754_log+0x200>
    3a40:	98006826 	beq	r19,zero,3be4 <__ieee754_log+0x680>
    3a44:	9809883a 	mov	r4,r19
    3a48:	0009a9c0 	call	9a9c <__floatsidf>
    3a4c:	01cff9b4 	movhi	r7,16358
    3a50:	01bfb834 	movhi	r6,65248
    3a54:	39cb9084 	addi	r7,r7,11842
    3a58:	1009883a 	mov	r4,r2
    3a5c:	180b883a 	mov	r5,r3
    3a60:	1023883a 	mov	r17,r2
    3a64:	1821883a 	mov	r16,r3
    3a68:	00089100 	call	8910 <__muldf3>
    3a6c:	018d5e74 	movhi	r6,13689
    3a70:	01cf7ab4 	movhi	r7,15850
    3a74:	8809883a 	mov	r4,r17
    3a78:	800b883a 	mov	r5,r16
    3a7c:	318f1d84 	addi	r6,r6,15478
    3a80:	39ce7bc4 	addi	r7,r7,14831
    3a84:	1027883a 	mov	r19,r2
    3a88:	1825883a 	mov	r18,r3
    3a8c:	00089100 	call	8910 <__muldf3>
    3a90:	100d883a 	mov	r6,r2
    3a94:	180f883a 	mov	r7,r3
    3a98:	9809883a 	mov	r4,r19
    3a9c:	900b883a 	mov	r5,r18
    3aa0:	00074bc0 	call	74bc <__adddf3>
    3aa4:	003f2f06 	br	3764 <__ieee754_log+0x200>
    3aa8:	100d883a 	mov	r6,r2
    3aac:	180f883a 	mov	r7,r3
    3ab0:	8809883a 	mov	r4,r17
    3ab4:	800b883a 	mov	r5,r16
    3ab8:	00090bc0 	call	90bc <__subdf3>
    3abc:	b00d883a 	mov	r6,r22
    3ac0:	a80f883a 	mov	r7,r21
    3ac4:	1009883a 	mov	r4,r2
    3ac8:	180b883a 	mov	r5,r3
    3acc:	00089100 	call	8910 <__muldf3>
    3ad0:	1029883a 	mov	r20,r2
    3ad4:	1825883a 	mov	r18,r3
    3ad8:	98000d26 	beq	r19,zero,3b10 <__ieee754_log+0x5ac>
    3adc:	dcc00317 	ldw	r19,12(sp)
    3ae0:	01cff9b4 	movhi	r7,16358
    3ae4:	01bfb834 	movhi	r6,65248
    3ae8:	39cb9084 	addi	r7,r7,11842
    3aec:	e009883a 	mov	r4,fp
    3af0:	980b883a 	mov	r5,r19
    3af4:	00089100 	call	8910 <__muldf3>
    3af8:	018d5e74 	movhi	r6,13689
    3afc:	01cf7ab4 	movhi	r7,15850
    3b00:	318f1d84 	addi	r6,r6,15478
    3b04:	39ce7bc4 	addi	r7,r7,14831
    3b08:	e009883a 	mov	r4,fp
    3b0c:	003ef906 	br	36f4 <__ieee754_log+0x190>
    3b10:	a00d883a 	mov	r6,r20
    3b14:	900f883a 	mov	r7,r18
    3b18:	8809883a 	mov	r4,r17
    3b1c:	800b883a 	mov	r5,r16
    3b20:	00090bc0 	call	90bc <__subdf3>
    3b24:	003f0f06 	br	3764 <__ieee754_log+0x200>
    3b28:	200d883a 	mov	r6,r4
    3b2c:	00090bc0 	call	90bc <__subdf3>
    3b30:	000d883a 	mov	r6,zero
    3b34:	000f883a 	mov	r7,zero
    3b38:	1009883a 	mov	r4,r2
    3b3c:	180b883a 	mov	r5,r3
    3b40:	0007dac0 	call	7dac <__divdf3>
    3b44:	003f0706 	br	3764 <__ieee754_log+0x200>
    3b48:	dcc00317 	ldw	r19,12(sp)
    3b4c:	01cff9b4 	movhi	r7,16358
    3b50:	e009883a 	mov	r4,fp
    3b54:	980b883a 	mov	r5,r19
    3b58:	01bfb834 	movhi	r6,65248
    3b5c:	39cb9084 	addi	r7,r7,11842
    3b60:	da400015 	stw	r9,0(sp)
    3b64:	00089100 	call	8910 <__muldf3>
    3b68:	018d5e74 	movhi	r6,13689
    3b6c:	01cf7ab4 	movhi	r7,15850
    3b70:	e009883a 	mov	r4,fp
    3b74:	980b883a 	mov	r5,r19
    3b78:	318f1d84 	addi	r6,r6,15478
    3b7c:	39ce7bc4 	addi	r7,r7,14831
    3b80:	102d883a 	mov	r22,r2
    3b84:	1827883a 	mov	r19,r3
    3b88:	00089100 	call	8910 <__muldf3>
    3b8c:	a80d883a 	mov	r6,r21
    3b90:	a00f883a 	mov	r7,r20
    3b94:	1009883a 	mov	r4,r2
    3b98:	180b883a 	mov	r5,r3
    3b9c:	00074bc0 	call	74bc <__adddf3>
    3ba0:	da400017 	ldw	r9,0(sp)
    3ba4:	900b883a 	mov	r5,r18
    3ba8:	100d883a 	mov	r6,r2
    3bac:	4809883a 	mov	r4,r9
    3bb0:	180f883a 	mov	r7,r3
    3bb4:	00090bc0 	call	90bc <__subdf3>
    3bb8:	880d883a 	mov	r6,r17
    3bbc:	800f883a 	mov	r7,r16
    3bc0:	1009883a 	mov	r4,r2
    3bc4:	180b883a 	mov	r5,r3
    3bc8:	00090bc0 	call	90bc <__subdf3>
    3bcc:	100d883a 	mov	r6,r2
    3bd0:	180f883a 	mov	r7,r3
    3bd4:	b009883a 	mov	r4,r22
    3bd8:	980b883a 	mov	r5,r19
    3bdc:	00090bc0 	call	90bc <__subdf3>
    3be0:	003ee006 	br	3764 <__ieee754_log+0x200>
    3be4:	0005883a 	mov	r2,zero
    3be8:	0007883a 	mov	r3,zero
    3bec:	003edd06 	br	3764 <__ieee754_log+0x200>

00003bf0 <__ieee754_pow>:
    3bf0:	00e00034 	movhi	r3,32768
    3bf4:	deffeb04 	addi	sp,sp,-84
    3bf8:	18ffffc4 	addi	r3,r3,-1
    3bfc:	dc000b15 	stw	r16,44(sp)
    3c00:	3021883a 	mov	r16,r6
    3c04:	38cc703a 	and	r6,r7,r3
    3c08:	dd401015 	stw	r21,64(sp)
    3c0c:	dc400c15 	stw	r17,48(sp)
    3c10:	dfc01415 	stw	ra,80(sp)
    3c14:	df001315 	stw	fp,76(sp)
    3c18:	ddc01215 	stw	r23,72(sp)
    3c1c:	dd801115 	stw	r22,68(sp)
    3c20:	dd000f15 	stw	r20,60(sp)
    3c24:	dcc00e15 	stw	r19,56(sp)
    3c28:	dc800d15 	stw	r18,52(sp)
    3c2c:	3404b03a 	or	r2,r6,r16
    3c30:	3823883a 	mov	r17,r7
    3c34:	282b883a 	mov	r21,r5
    3c38:	1000191e 	bne	r2,zero,3ca0 <__ieee754_pow+0xb0>
    3c3c:	2880023c 	xorhi	r2,r5,8
    3c40:	2006d7fa 	srli	r3,r4,31
    3c44:	1004907a 	slli	r2,r2,1
    3c48:	017ffc34 	movhi	r5,65520
    3c4c:	200c907a 	slli	r6,r4,1
    3c50:	1884b03a 	or	r2,r3,r2
    3c54:	2880202e 	bgeu	r5,r2,3cd8 <__ieee754_pow+0xe8>
    3c58:	800d883a 	mov	r6,r16
    3c5c:	880f883a 	mov	r7,r17
    3c60:	a80b883a 	mov	r5,r21
    3c64:	00074bc0 	call	74bc <__adddf3>
    3c68:	102d883a 	mov	r22,r2
    3c6c:	b005883a 	mov	r2,r22
    3c70:	dfc01417 	ldw	ra,80(sp)
    3c74:	df001317 	ldw	fp,76(sp)
    3c78:	ddc01217 	ldw	r23,72(sp)
    3c7c:	dd801117 	ldw	r22,68(sp)
    3c80:	dd401017 	ldw	r21,64(sp)
    3c84:	dd000f17 	ldw	r20,60(sp)
    3c88:	dcc00e17 	ldw	r19,56(sp)
    3c8c:	dc800d17 	ldw	r18,52(sp)
    3c90:	dc400c17 	ldw	r17,48(sp)
    3c94:	dc000b17 	ldw	r16,44(sp)
    3c98:	dec01504 	addi	sp,sp,84
    3c9c:	f800283a 	ret
    3ca0:	28e6703a 	and	r19,r5,r3
    3ca4:	009ffc34 	movhi	r2,32752
    3ca8:	14c00f0e 	bge	r2,r19,3ce8 <__ieee754_pow+0xf8>
    3cac:	00b00434 	movhi	r2,49168
    3cb0:	a885883a 	add	r2,r21,r2
    3cb4:	1104b03a 	or	r2,r2,r4
    3cb8:	103fe71e 	bne	r2,zero,3c58 <__ieee754_pow+0x68>
    3cbc:	8880023c 	xorhi	r2,r17,8
    3cc0:	8006d7fa 	srli	r3,r16,31
    3cc4:	1004907a 	slli	r2,r2,1
    3cc8:	017ffc34 	movhi	r5,65520
    3ccc:	800c907a 	slli	r6,r16,1
    3cd0:	1884b03a 	or	r2,r3,r2
    3cd4:	28bfe036 	bltu	r5,r2,3c58 <__ieee754_pow+0x68>
    3cd8:	11402726 	beq	r2,r5,3d78 <__ieee754_pow+0x188>
    3cdc:	002d883a 	mov	r22,zero
    3ce0:	00cffc34 	movhi	r3,16368
    3ce4:	003fe106 	br	3c6c <__ieee754_pow+0x7c>
    3ce8:	98802526 	beq	r19,r2,3d80 <__ieee754_pow+0x190>
    3cec:	009ffc34 	movhi	r2,32752
    3cf0:	11bfee16 	blt	r2,r6,3cac <__ieee754_pow+0xbc>
    3cf4:	30802426 	beq	r6,r2,3d88 <__ieee754_pow+0x198>
    3cf8:	a8006e16 	blt	r21,zero,3eb4 <__ieee754_pow+0x2c4>
    3cfc:	0025883a 	mov	r18,zero
    3d00:	80002326 	beq	r16,zero,3d90 <__ieee754_pow+0x1a0>
    3d04:	00e00034 	movhi	r3,32768
    3d08:	18ffffc4 	addi	r3,r3,-1
    3d0c:	202d883a 	mov	r22,r4
    3d10:	a8c6703a 	and	r3,r21,r3
    3d14:	20003a26 	beq	r4,zero,3e00 <__ieee754_pow+0x210>
    3d18:	a828d7fa 	srli	r20,r21,31
    3d1c:	a53fffc4 	addi	r20,r20,-1
    3d20:	9504b03a 	or	r2,r18,r20
    3d24:	10008026 	beq	r2,zero,3f28 <__ieee754_pow+0x338>
    3d28:	00907834 	movhi	r2,16864
    3d2c:	1180810e 	bge	r2,r6,3f34 <__ieee754_pow+0x344>
    3d30:	0090fc34 	movhi	r2,17392
    3d34:	11834f0e 	bge	r2,r6,4a74 <__ieee754_pow+0xe84>
    3d38:	008ffc34 	movhi	r2,16368
    3d3c:	9880480e 	bge	r19,r2,3e60 <__ieee754_pow+0x270>
    3d40:	88004816 	blt	r17,zero,3e64 <__ieee754_pow+0x274>
    3d44:	0009883a 	mov	r4,zero
    3d48:	dfc01417 	ldw	ra,80(sp)
    3d4c:	df001317 	ldw	fp,76(sp)
    3d50:	ddc01217 	ldw	r23,72(sp)
    3d54:	dd801117 	ldw	r22,68(sp)
    3d58:	dd401017 	ldw	r21,64(sp)
    3d5c:	dd000f17 	ldw	r20,60(sp)
    3d60:	dcc00e17 	ldw	r19,56(sp)
    3d64:	dc800d17 	ldw	r18,52(sp)
    3d68:	dc400c17 	ldw	r17,48(sp)
    3d6c:	dc000b17 	ldw	r16,44(sp)
    3d70:	dec01504 	addi	sp,sp,84
    3d74:	0006bd01 	jmpi	6bd0 <__math_uflow>
    3d78:	303fd826 	beq	r6,zero,3cdc <__ieee754_pow+0xec>
    3d7c:	003fb606 	br	3c58 <__ieee754_pow+0x68>
    3d80:	203fb51e 	bne	r4,zero,3c58 <__ieee754_pow+0x68>
    3d84:	003fd906 	br	3cec <__ieee754_pow+0xfc>
    3d88:	803fdb26 	beq	r16,zero,3cf8 <__ieee754_pow+0x108>
    3d8c:	003fc706 	br	3cac <__ieee754_pow+0xbc>
    3d90:	009ffc34 	movhi	r2,32752
    3d94:	30805a26 	beq	r6,r2,3f00 <__ieee754_pow+0x310>
    3d98:	008ffc34 	movhi	r2,16368
    3d9c:	30831026 	beq	r6,r2,49e0 <__ieee754_pow+0xdf0>
    3da0:	00900034 	movhi	r2,16384
    3da4:	8883a626 	beq	r17,r2,4c40 <__ieee754_pow+0x1050>
    3da8:	008ff834 	movhi	r2,16352
    3dac:	88bfd51e 	bne	r17,r2,3d04 <__ieee754_pow+0x114>
    3db0:	a83fd416 	blt	r21,zero,3d04 <__ieee754_pow+0x114>
    3db4:	a80b883a 	mov	r5,r21
    3db8:	dfc01417 	ldw	ra,80(sp)
    3dbc:	df001317 	ldw	fp,76(sp)
    3dc0:	ddc01217 	ldw	r23,72(sp)
    3dc4:	dd801117 	ldw	r22,68(sp)
    3dc8:	dd401017 	ldw	r21,64(sp)
    3dcc:	dd000f17 	ldw	r20,60(sp)
    3dd0:	dcc00e17 	ldw	r19,56(sp)
    3dd4:	dc800d17 	ldw	r18,52(sp)
    3dd8:	dc400c17 	ldw	r17,48(sp)
    3ddc:	dc000b17 	ldw	r16,44(sp)
    3de0:	dec01504 	addi	sp,sp,84
    3de4:	00054441 	jmpi	5444 <__ieee754_sqrt>
    3de8:	20004f1e 	bne	r4,zero,3f28 <__ieee754_pow+0x338>
    3dec:	00e00034 	movhi	r3,32768
    3df0:	18ffffc4 	addi	r3,r3,-1
    3df4:	002d883a 	mov	r22,zero
    3df8:	a8c6703a 	and	r3,r21,r3
    3dfc:	0025883a 	mov	r18,zero
    3e00:	98000526 	beq	r19,zero,3e18 <__ieee754_pow+0x228>
    3e04:	00900034 	movhi	r2,16384
    3e08:	10bfffc4 	addi	r2,r2,-1
    3e0c:	a884703a 	and	r2,r21,r2
    3e10:	014ffc34 	movhi	r5,16368
    3e14:	117fc01e 	bne	r2,r5,3d18 <__ieee754_pow+0x128>
    3e18:	88001f16 	blt	r17,zero,3e98 <__ieee754_pow+0x2a8>
    3e1c:	a83f930e 	bge	r21,zero,3c6c <__ieee754_pow+0x7c>
    3e20:	00b00434 	movhi	r2,49168
    3e24:	9885883a 	add	r2,r19,r2
    3e28:	1484b03a 	or	r2,r2,r18
    3e2c:	10038a1e 	bne	r2,zero,4c58 <__ieee754_pow+0x1068>
    3e30:	b00d883a 	mov	r6,r22
    3e34:	180f883a 	mov	r7,r3
    3e38:	3009883a 	mov	r4,r6
    3e3c:	380b883a 	mov	r5,r7
    3e40:	00090bc0 	call	90bc <__subdf3>
    3e44:	100d883a 	mov	r6,r2
    3e48:	180f883a 	mov	r7,r3
    3e4c:	1009883a 	mov	r4,r2
    3e50:	180b883a 	mov	r5,r3
    3e54:	0007dac0 	call	7dac <__divdf3>
    3e58:	102d883a 	mov	r22,r2
    3e5c:	003f8306 	br	3c6c <__ieee754_pow+0x7c>
    3e60:	047fb80e 	bge	zero,r17,3d44 <__ieee754_pow+0x154>
    3e64:	0009883a 	mov	r4,zero
    3e68:	dfc01417 	ldw	ra,80(sp)
    3e6c:	df001317 	ldw	fp,76(sp)
    3e70:	ddc01217 	ldw	r23,72(sp)
    3e74:	dd801117 	ldw	r22,68(sp)
    3e78:	dd401017 	ldw	r21,64(sp)
    3e7c:	dd000f17 	ldw	r20,60(sp)
    3e80:	dcc00e17 	ldw	r19,56(sp)
    3e84:	dc800d17 	ldw	r18,52(sp)
    3e88:	dc400c17 	ldw	r17,48(sp)
    3e8c:	dc000b17 	ldw	r16,44(sp)
    3e90:	dec01504 	addi	sp,sp,84
    3e94:	0006be81 	jmpi	6be8 <__math_oflow>
    3e98:	180f883a 	mov	r7,r3
    3e9c:	000d883a 	mov	r6,zero
    3ea0:	0009883a 	mov	r4,zero
    3ea4:	014ffc34 	movhi	r5,16368
    3ea8:	0007dac0 	call	7dac <__divdf3>
    3eac:	102d883a 	mov	r22,r2
    3eb0:	003fda06 	br	3e1c <__ieee754_pow+0x22c>
    3eb4:	0090d034 	movhi	r2,17216
    3eb8:	30800e0e 	bge	r6,r2,3ef4 <__ieee754_pow+0x304>
    3ebc:	008ffc34 	movhi	r2,16368
    3ec0:	30800916 	blt	r6,r2,3ee8 <__ieee754_pow+0x2f8>
    3ec4:	3005d53a 	srai	r2,r6,20
    3ec8:	10bf0044 	addi	r2,r2,-1023
    3ecc:	10c00550 	cmplti	r3,r2,21
    3ed0:	18034c1e 	bne	r3,zero,4c04 <__ieee754_pow+0x1014>
    3ed4:	00c00d04 	movi	r3,52
    3ed8:	1885c83a 	sub	r2,r3,r2
    3edc:	8086d83a 	srl	r3,r16,r2
    3ee0:	1884983a 	sll	r2,r3,r2
    3ee4:	14037926 	beq	r2,r16,4ccc <__ieee754_pow+0x10dc>
    3ee8:	0025883a 	mov	r18,zero
    3eec:	803faa26 	beq	r16,zero,3d98 <__ieee754_pow+0x1a8>
    3ef0:	003f8406 	br	3d04 <__ieee754_pow+0x114>
    3ef4:	04800084 	movi	r18,2
    3ef8:	803f821e 	bne	r16,zero,3d04 <__ieee754_pow+0x114>
    3efc:	003fa406 	br	3d90 <__ieee754_pow+0x1a0>
    3f00:	00b00434 	movhi	r2,49168
    3f04:	9885883a 	add	r2,r19,r2
    3f08:	1104b03a 	or	r2,r2,r4
    3f0c:	103f7326 	beq	r2,zero,3cdc <__ieee754_pow+0xec>
    3f10:	008ffc34 	movhi	r2,16368
    3f14:	002d883a 	mov	r22,zero
    3f18:	98833716 	blt	r19,r2,4bf8 <__ieee754_pow+0x1008>
    3f1c:	88033416 	blt	r17,zero,4bf0 <__ieee754_pow+0x1000>
    3f20:	8807883a 	mov	r3,r17
    3f24:	003f5106 	br	3c6c <__ieee754_pow+0x7c>
    3f28:	200d883a 	mov	r6,r4
    3f2c:	a80f883a 	mov	r7,r21
    3f30:	003fc106 	br	3e38 <__ieee754_pow+0x248>
    3f34:	ad5ffc2c 	andhi	r21,r21,32752
    3f38:	a802cc1e 	bne	r21,zero,4a6c <__ieee754_pow+0xe7c>
    3f3c:	180b883a 	mov	r5,r3
    3f40:	000d883a 	mov	r6,zero
    3f44:	01d0d034 	movhi	r7,17216
    3f48:	00089100 	call	8910 <__muldf3>
    3f4c:	102d883a 	mov	r22,r2
    3f50:	1827883a 	mov	r19,r3
    3f54:	017ff2c4 	movi	r5,-53
    3f58:	9809d53a 	srai	r4,r19,20
    3f5c:	00800434 	movhi	r2,16
    3f60:	10bfffc4 	addi	r2,r2,-1
    3f64:	00c00134 	movhi	r3,4
    3f68:	213f0044 	addi	r4,r4,-1023
    3f6c:	9884703a 	and	r2,r19,r2
    3f70:	18e62384 	addi	r3,r3,-26482
    3f74:	2159883a 	add	r12,r4,r5
    3f78:	170ffc34 	orhi	fp,r2,16368
    3f7c:	1880060e 	bge	r3,r2,3f98 <__ieee754_pow+0x3a8>
    3f80:	00c00334 	movhi	r3,12
    3f84:	18ed9e44 	addi	r3,r3,-18823
    3f88:	1883370e 	bge	r3,r2,4c68 <__ieee754_pow+0x1078>
    3f8c:	00bffc34 	movhi	r2,65520
    3f90:	63000044 	addi	r12,r12,1
    3f94:	e0b9883a 	add	fp,fp,r2
    3f98:	d8000015 	stw	zero,0(sp)
    3f9c:	d8000115 	stw	zero,4(sp)
    3fa0:	d8000a15 	stw	zero,40(sp)
    3fa4:	001f883a 	mov	r15,zero
    3fa8:	002f883a 	mov	r23,zero
    3fac:	034ffc34 	movhi	r13,16368
    3fb0:	680f883a 	mov	r7,r13
    3fb4:	b009883a 	mov	r4,r22
    3fb8:	e00b883a 	mov	r5,fp
    3fbc:	000d883a 	mov	r6,zero
    3fc0:	dbc00915 	stw	r15,36(sp)
    3fc4:	db000815 	stw	r12,32(sp)
    3fc8:	db400215 	stw	r13,8(sp)
    3fcc:	00090bc0 	call	90bc <__subdf3>
    3fd0:	db400217 	ldw	r13,8(sp)
    3fd4:	b009883a 	mov	r4,r22
    3fd8:	e00b883a 	mov	r5,fp
    3fdc:	680f883a 	mov	r7,r13
    3fe0:	000d883a 	mov	r6,zero
    3fe4:	db400615 	stw	r13,24(sp)
    3fe8:	d8800315 	stw	r2,12(sp)
    3fec:	d8c00215 	stw	r3,8(sp)
    3ff0:	00074bc0 	call	74bc <__adddf3>
    3ff4:	100d883a 	mov	r6,r2
    3ff8:	180f883a 	mov	r7,r3
    3ffc:	0009883a 	mov	r4,zero
    4000:	014ffc34 	movhi	r5,16368
    4004:	0007dac0 	call	7dac <__divdf3>
    4008:	dac00217 	ldw	r11,8(sp)
    400c:	da400317 	ldw	r9,12(sp)
    4010:	100d883a 	mov	r6,r2
    4014:	580b883a 	mov	r5,r11
    4018:	4809883a 	mov	r4,r9
    401c:	180f883a 	mov	r7,r3
    4020:	d8800515 	stw	r2,20(sp)
    4024:	d8c00415 	stw	r3,16(sp)
    4028:	00089100 	call	8910 <__muldf3>
    402c:	e009d07a 	srai	r4,fp,1
    4030:	01400234 	movhi	r5,8
    4034:	000d883a 	mov	r6,zero
    4038:	21080034 	orhi	r4,r4,8192
    403c:	2149883a 	add	r4,r4,r5
    4040:	25ef883a 	add	r23,r4,r23
    4044:	b80f883a 	mov	r7,r23
    4048:	0009883a 	mov	r4,zero
    404c:	180b883a 	mov	r5,r3
    4050:	1827883a 	mov	r19,r3
    4054:	102b883a 	mov	r21,r2
    4058:	00089100 	call	8910 <__muldf3>
    405c:	da400317 	ldw	r9,12(sp)
    4060:	dac00217 	ldw	r11,8(sp)
    4064:	100d883a 	mov	r6,r2
    4068:	4809883a 	mov	r4,r9
    406c:	580b883a 	mov	r5,r11
    4070:	180f883a 	mov	r7,r3
    4074:	00090bc0 	call	90bc <__subdf3>
    4078:	db400617 	ldw	r13,24(sp)
    407c:	b80b883a 	mov	r5,r23
    4080:	000d883a 	mov	r6,zero
    4084:	680f883a 	mov	r7,r13
    4088:	0009883a 	mov	r4,zero
    408c:	182f883a 	mov	r23,r3
    4090:	d8800215 	stw	r2,8(sp)
    4094:	00090bc0 	call	90bc <__subdf3>
    4098:	b009883a 	mov	r4,r22
    409c:	e00b883a 	mov	r5,fp
    40a0:	100d883a 	mov	r6,r2
    40a4:	180f883a 	mov	r7,r3
    40a8:	00090bc0 	call	90bc <__subdf3>
    40ac:	980f883a 	mov	r7,r19
    40b0:	000d883a 	mov	r6,zero
    40b4:	1009883a 	mov	r4,r2
    40b8:	180b883a 	mov	r5,r3
    40bc:	00089100 	call	8910 <__muldf3>
    40c0:	dac00217 	ldw	r11,8(sp)
    40c4:	b80b883a 	mov	r5,r23
    40c8:	100d883a 	mov	r6,r2
    40cc:	5809883a 	mov	r4,r11
    40d0:	180f883a 	mov	r7,r3
    40d4:	00090bc0 	call	90bc <__subdf3>
    40d8:	da000417 	ldw	r8,16(sp)
    40dc:	da800517 	ldw	r10,20(sp)
    40e0:	1009883a 	mov	r4,r2
    40e4:	400f883a 	mov	r7,r8
    40e8:	500d883a 	mov	r6,r10
    40ec:	180b883a 	mov	r5,r3
    40f0:	00089100 	call	8910 <__muldf3>
    40f4:	a80d883a 	mov	r6,r21
    40f8:	980f883a 	mov	r7,r19
    40fc:	a809883a 	mov	r4,r21
    4100:	980b883a 	mov	r5,r19
    4104:	d8800415 	stw	r2,16(sp)
    4108:	d8c00315 	stw	r3,12(sp)
    410c:	00089100 	call	8910 <__muldf3>
    4110:	01929174 	movhi	r6,19013
    4114:	01cff2b4 	movhi	r7,16330
    4118:	3193bbc4 	addi	r6,r6,20207
    411c:	39df8a04 	addi	r7,r7,32296
    4120:	1009883a 	mov	r4,r2
    4124:	180b883a 	mov	r5,r3
    4128:	102f883a 	mov	r23,r2
    412c:	182d883a 	mov	r22,r3
    4130:	00089100 	call	8910 <__muldf3>
    4134:	01a4f2b4 	movhi	r6,37834
    4138:	01cff3b4 	movhi	r7,16334
    413c:	31b6d944 	addi	r6,r6,-9371
    4140:	39e19284 	addi	r7,r7,-31158
    4144:	1009883a 	mov	r4,r2
    4148:	180b883a 	mov	r5,r3
    414c:	00074bc0 	call	74bc <__adddf3>
    4150:	b80d883a 	mov	r6,r23
    4154:	b00f883a 	mov	r7,r22
    4158:	1009883a 	mov	r4,r2
    415c:	180b883a 	mov	r5,r3
    4160:	00089100 	call	8910 <__muldf3>
    4164:	01aa4774 	movhi	r6,43293
    4168:	01cff474 	movhi	r7,16337
    416c:	31904044 	addi	r6,r6,16641
    4170:	39dd1804 	addi	r7,r7,29792
    4174:	1009883a 	mov	r4,r2
    4178:	180b883a 	mov	r5,r3
    417c:	00074bc0 	call	74bc <__adddf3>
    4180:	b80d883a 	mov	r6,r23
    4184:	b00f883a 	mov	r7,r22
    4188:	1009883a 	mov	r4,r2
    418c:	180b883a 	mov	r5,r3
    4190:	00089100 	call	8910 <__muldf3>
    4194:	019463f4 	movhi	r6,20879
    4198:	01cff574 	movhi	r7,16341
    419c:	31899344 	addi	r6,r6,9805
    41a0:	39d55544 	addi	r7,r7,21845
    41a4:	1009883a 	mov	r4,r2
    41a8:	180b883a 	mov	r5,r3
    41ac:	00074bc0 	call	74bc <__adddf3>
    41b0:	b80d883a 	mov	r6,r23
    41b4:	b00f883a 	mov	r7,r22
    41b8:	1009883a 	mov	r4,r2
    41bc:	180b883a 	mov	r5,r3
    41c0:	00089100 	call	8910 <__muldf3>
    41c4:	01b6dc34 	movhi	r6,56176
    41c8:	01cff6f4 	movhi	r7,16347
    41cc:	31aaffc4 	addi	r6,r6,-21505
    41d0:	39db6d84 	addi	r7,r7,28086
    41d4:	1009883a 	mov	r4,r2
    41d8:	180b883a 	mov	r5,r3
    41dc:	00074bc0 	call	74bc <__adddf3>
    41e0:	b80d883a 	mov	r6,r23
    41e4:	b00f883a 	mov	r7,r22
    41e8:	1009883a 	mov	r4,r2
    41ec:	180b883a 	mov	r5,r3
    41f0:	00089100 	call	8910 <__muldf3>
    41f4:	018cccf4 	movhi	r6,13107
    41f8:	01cff8f4 	movhi	r7,16355
    41fc:	318cc0c4 	addi	r6,r6,13059
    4200:	39ccccc4 	addi	r7,r7,13107
    4204:	1009883a 	mov	r4,r2
    4208:	180b883a 	mov	r5,r3
    420c:	00074bc0 	call	74bc <__adddf3>
    4210:	b80d883a 	mov	r6,r23
    4214:	b00f883a 	mov	r7,r22
    4218:	b809883a 	mov	r4,r23
    421c:	b00b883a 	mov	r5,r22
    4220:	1839883a 	mov	fp,r3
    4224:	d8800215 	stw	r2,8(sp)
    4228:	00089100 	call	8910 <__muldf3>
    422c:	dac00217 	ldw	r11,8(sp)
    4230:	e00b883a 	mov	r5,fp
    4234:	100d883a 	mov	r6,r2
    4238:	5809883a 	mov	r4,r11
    423c:	180f883a 	mov	r7,r3
    4240:	00089100 	call	8910 <__muldf3>
    4244:	980f883a 	mov	r7,r19
    4248:	a809883a 	mov	r4,r21
    424c:	980b883a 	mov	r5,r19
    4250:	000d883a 	mov	r6,zero
    4254:	102f883a 	mov	r23,r2
    4258:	182d883a 	mov	r22,r3
    425c:	00074bc0 	call	74bc <__adddf3>
    4260:	da800417 	ldw	r10,16(sp)
    4264:	da400317 	ldw	r9,12(sp)
    4268:	1009883a 	mov	r4,r2
    426c:	500d883a 	mov	r6,r10
    4270:	480f883a 	mov	r7,r9
    4274:	180b883a 	mov	r5,r3
    4278:	da800715 	stw	r10,28(sp)
    427c:	da400615 	stw	r9,24(sp)
    4280:	00089100 	call	8910 <__muldf3>
    4284:	b80d883a 	mov	r6,r23
    4288:	b00f883a 	mov	r7,r22
    428c:	1009883a 	mov	r4,r2
    4290:	180b883a 	mov	r5,r3
    4294:	00074bc0 	call	74bc <__adddf3>
    4298:	980f883a 	mov	r7,r19
    429c:	980b883a 	mov	r5,r19
    42a0:	000d883a 	mov	r6,zero
    42a4:	0009883a 	mov	r4,zero
    42a8:	d8800315 	stw	r2,12(sp)
    42ac:	d8c00215 	stw	r3,8(sp)
    42b0:	00089100 	call	8910 <__muldf3>
    42b4:	000d883a 	mov	r6,zero
    42b8:	01d00234 	movhi	r7,16392
    42bc:	1009883a 	mov	r4,r2
    42c0:	180b883a 	mov	r5,r3
    42c4:	d8800515 	stw	r2,20(sp)
    42c8:	d8c00415 	stw	r3,16(sp)
    42cc:	00074bc0 	call	74bc <__adddf3>
    42d0:	da000317 	ldw	r8,12(sp)
    42d4:	dac00217 	ldw	r11,8(sp)
    42d8:	1009883a 	mov	r4,r2
    42dc:	400d883a 	mov	r6,r8
    42e0:	580f883a 	mov	r7,r11
    42e4:	180b883a 	mov	r5,r3
    42e8:	00074bc0 	call	74bc <__adddf3>
    42ec:	980b883a 	mov	r5,r19
    42f0:	000d883a 	mov	r6,zero
    42f4:	180f883a 	mov	r7,r3
    42f8:	0009883a 	mov	r4,zero
    42fc:	182d883a 	mov	r22,r3
    4300:	00089100 	call	8910 <__muldf3>
    4304:	b00b883a 	mov	r5,r22
    4308:	000d883a 	mov	r6,zero
    430c:	01d00234 	movhi	r7,16392
    4310:	0009883a 	mov	r4,zero
    4314:	1039883a 	mov	fp,r2
    4318:	182f883a 	mov	r23,r3
    431c:	00090bc0 	call	90bc <__subdf3>
    4320:	db800517 	ldw	r14,20(sp)
    4324:	db400417 	ldw	r13,16(sp)
    4328:	1009883a 	mov	r4,r2
    432c:	700d883a 	mov	r6,r14
    4330:	680f883a 	mov	r7,r13
    4334:	180b883a 	mov	r5,r3
    4338:	00090bc0 	call	90bc <__subdf3>
    433c:	da000317 	ldw	r8,12(sp)
    4340:	dac00217 	ldw	r11,8(sp)
    4344:	100d883a 	mov	r6,r2
    4348:	4009883a 	mov	r4,r8
    434c:	580b883a 	mov	r5,r11
    4350:	180f883a 	mov	r7,r3
    4354:	00090bc0 	call	90bc <__subdf3>
    4358:	a80d883a 	mov	r6,r21
    435c:	980f883a 	mov	r7,r19
    4360:	1009883a 	mov	r4,r2
    4364:	180b883a 	mov	r5,r3
    4368:	00089100 	call	8910 <__muldf3>
    436c:	da800717 	ldw	r10,28(sp)
    4370:	da400617 	ldw	r9,24(sp)
    4374:	b00f883a 	mov	r7,r22
    4378:	5009883a 	mov	r4,r10
    437c:	480b883a 	mov	r5,r9
    4380:	000d883a 	mov	r6,zero
    4384:	102b883a 	mov	r21,r2
    4388:	1827883a 	mov	r19,r3
    438c:	00089100 	call	8910 <__muldf3>
    4390:	a809883a 	mov	r4,r21
    4394:	980b883a 	mov	r5,r19
    4398:	100d883a 	mov	r6,r2
    439c:	180f883a 	mov	r7,r3
    43a0:	00074bc0 	call	74bc <__adddf3>
    43a4:	e009883a 	mov	r4,fp
    43a8:	b80b883a 	mov	r5,r23
    43ac:	100d883a 	mov	r6,r2
    43b0:	180f883a 	mov	r7,r3
    43b4:	102d883a 	mov	r22,r2
    43b8:	182b883a 	mov	r21,r3
    43bc:	00074bc0 	call	74bc <__adddf3>
    43c0:	01cffbf4 	movhi	r7,16367
    43c4:	01b80034 	movhi	r6,57344
    43c8:	39f1c244 	addi	r7,r7,-14583
    43cc:	0009883a 	mov	r4,zero
    43d0:	180b883a 	mov	r5,r3
    43d4:	1827883a 	mov	r19,r3
    43d8:	00089100 	call	8910 <__muldf3>
    43dc:	e00d883a 	mov	r6,fp
    43e0:	b80f883a 	mov	r7,r23
    43e4:	980b883a 	mov	r5,r19
    43e8:	0009883a 	mov	r4,zero
    43ec:	1039883a 	mov	fp,r2
    43f0:	182f883a 	mov	r23,r3
    43f4:	00090bc0 	call	90bc <__subdf3>
    43f8:	b009883a 	mov	r4,r22
    43fc:	a80b883a 	mov	r5,r21
    4400:	100d883a 	mov	r6,r2
    4404:	180f883a 	mov	r7,r3
    4408:	00090bc0 	call	90bc <__subdf3>
    440c:	01b70eb4 	movhi	r6,56378
    4410:	01cffbf4 	movhi	r7,16367
    4414:	3180ff44 	addi	r6,r6,1021
    4418:	39f1c244 	addi	r7,r7,-14583
    441c:	1009883a 	mov	r4,r2
    4420:	180b883a 	mov	r5,r3
    4424:	00089100 	call	8910 <__muldf3>
    4428:	018516f4 	movhi	r6,5211
    442c:	01ef8fb4 	movhi	r7,48702
    4430:	980b883a 	mov	r5,r19
    4434:	31807d44 	addi	r6,r6,501
    4438:	39cbf804 	addi	r7,r7,12256
    443c:	0009883a 	mov	r4,zero
    4440:	102d883a 	mov	r22,r2
    4444:	182b883a 	mov	r21,r3
    4448:	00089100 	call	8910 <__muldf3>
    444c:	b009883a 	mov	r4,r22
    4450:	a80b883a 	mov	r5,r21
    4454:	100d883a 	mov	r6,r2
    4458:	180f883a 	mov	r7,r3
    445c:	00074bc0 	call	74bc <__adddf3>
    4460:	dbc00917 	ldw	r15,36(sp)
    4464:	d9800a17 	ldw	r6,40(sp)
    4468:	180b883a 	mov	r5,r3
    446c:	780f883a 	mov	r7,r15
    4470:	1009883a 	mov	r4,r2
    4474:	00074bc0 	call	74bc <__adddf3>
    4478:	db000817 	ldw	r12,32(sp)
    447c:	102d883a 	mov	r22,r2
    4480:	182b883a 	mov	r21,r3
    4484:	6009883a 	mov	r4,r12
    4488:	0009a9c0 	call	9a9c <__floatsidf>
    448c:	b00d883a 	mov	r6,r22
    4490:	a80f883a 	mov	r7,r21
    4494:	e009883a 	mov	r4,fp
    4498:	b80b883a 	mov	r5,r23
    449c:	d8800315 	stw	r2,12(sp)
    44a0:	d8c00215 	stw	r3,8(sp)
    44a4:	00074bc0 	call	74bc <__adddf3>
    44a8:	d9800017 	ldw	r6,0(sp)
    44ac:	d9c00117 	ldw	r7,4(sp)
    44b0:	1009883a 	mov	r4,r2
    44b4:	180b883a 	mov	r5,r3
    44b8:	00074bc0 	call	74bc <__adddf3>
    44bc:	da800317 	ldw	r10,12(sp)
    44c0:	da400217 	ldw	r9,8(sp)
    44c4:	1009883a 	mov	r4,r2
    44c8:	500d883a 	mov	r6,r10
    44cc:	480f883a 	mov	r7,r9
    44d0:	180b883a 	mov	r5,r3
    44d4:	00074bc0 	call	74bc <__adddf3>
    44d8:	da800317 	ldw	r10,12(sp)
    44dc:	da400217 	ldw	r9,8(sp)
    44e0:	0009883a 	mov	r4,zero
    44e4:	500d883a 	mov	r6,r10
    44e8:	480f883a 	mov	r7,r9
    44ec:	180b883a 	mov	r5,r3
    44f0:	1827883a 	mov	r19,r3
    44f4:	00090bc0 	call	90bc <__subdf3>
    44f8:	d9800017 	ldw	r6,0(sp)
    44fc:	d9c00117 	ldw	r7,4(sp)
    4500:	1009883a 	mov	r4,r2
    4504:	180b883a 	mov	r5,r3
    4508:	00090bc0 	call	90bc <__subdf3>
    450c:	e00d883a 	mov	r6,fp
    4510:	b80f883a 	mov	r7,r23
    4514:	1009883a 	mov	r4,r2
    4518:	180b883a 	mov	r5,r3
    451c:	00090bc0 	call	90bc <__subdf3>
    4520:	b009883a 	mov	r4,r22
    4524:	100d883a 	mov	r6,r2
    4528:	180f883a 	mov	r7,r3
    452c:	a80b883a 	mov	r5,r21
    4530:	94bfffc4 	addi	r18,r18,-1
    4534:	00090bc0 	call	90bc <__subdf3>
    4538:	9528b03a 	or	r20,r18,r20
    453c:	102f883a 	mov	r23,r2
    4540:	182d883a 	mov	r22,r3
    4544:	a001471e 	bne	r20,zero,4a64 <__ieee754_pow+0xe74>
    4548:	052ffc34 	movhi	r20,49136
    454c:	880f883a 	mov	r7,r17
    4550:	8009883a 	mov	r4,r16
    4554:	880b883a 	mov	r5,r17
    4558:	000d883a 	mov	r6,zero
    455c:	00090bc0 	call	90bc <__subdf3>
    4560:	980f883a 	mov	r7,r19
    4564:	000d883a 	mov	r6,zero
    4568:	1009883a 	mov	r4,r2
    456c:	180b883a 	mov	r5,r3
    4570:	00089100 	call	8910 <__muldf3>
    4574:	800d883a 	mov	r6,r16
    4578:	880f883a 	mov	r7,r17
    457c:	b809883a 	mov	r4,r23
    4580:	b00b883a 	mov	r5,r22
    4584:	102b883a 	mov	r21,r2
    4588:	1825883a 	mov	r18,r3
    458c:	00089100 	call	8910 <__muldf3>
    4590:	a809883a 	mov	r4,r21
    4594:	900b883a 	mov	r5,r18
    4598:	100d883a 	mov	r6,r2
    459c:	180f883a 	mov	r7,r3
    45a0:	00074bc0 	call	74bc <__adddf3>
    45a4:	880f883a 	mov	r7,r17
    45a8:	980b883a 	mov	r5,r19
    45ac:	000d883a 	mov	r6,zero
    45b0:	0009883a 	mov	r4,zero
    45b4:	1027883a 	mov	r19,r2
    45b8:	182b883a 	mov	r21,r3
    45bc:	00089100 	call	8910 <__muldf3>
    45c0:	a80b883a 	mov	r5,r21
    45c4:	100d883a 	mov	r6,r2
    45c8:	180f883a 	mov	r7,r3
    45cc:	9809883a 	mov	r4,r19
    45d0:	1023883a 	mov	r17,r2
    45d4:	1825883a 	mov	r18,r3
    45d8:	00074bc0 	call	74bc <__adddf3>
    45dc:	01502434 	movhi	r5,16528
    45e0:	1821883a 	mov	r16,r3
    45e4:	8817883a 	mov	r11,r17
    45e8:	902f883a 	mov	r23,r18
    45ec:	102d883a 	mov	r22,r2
    45f0:	1839883a 	mov	fp,r3
    45f4:	1940fe16 	blt	r3,r5,49f0 <__ieee754_pow+0xe00>
    45f8:	1947c83a 	sub	r3,r3,r5
    45fc:	1d86b03a 	or	r3,r3,r22
    4600:	1801ab1e 	bne	r3,zero,4cb0 <__ieee754_pow+0x10c0>
    4604:	01994b34 	movhi	r6,25900
    4608:	01cf25f4 	movhi	r7,15511
    460c:	31a0bf84 	addi	r6,r6,-32002
    4610:	39c551c4 	addi	r7,r7,5447
    4614:	9809883a 	mov	r4,r19
    4618:	a80b883a 	mov	r5,r21
    461c:	00074bc0 	call	74bc <__adddf3>
    4620:	880d883a 	mov	r6,r17
    4624:	900f883a 	mov	r7,r18
    4628:	b009883a 	mov	r4,r22
    462c:	800b883a 	mov	r5,r16
    4630:	1039883a 	mov	fp,r2
    4634:	182f883a 	mov	r23,r3
    4638:	00090bc0 	call	90bc <__subdf3>
    463c:	100d883a 	mov	r6,r2
    4640:	180f883a 	mov	r7,r3
    4644:	e009883a 	mov	r4,fp
    4648:	b80b883a 	mov	r5,r23
    464c:	00087400 	call	8740 <__gedf2>
    4650:	00819716 	blt	zero,r2,4cb0 <__ieee754_pow+0x10c0>
    4654:	8009d53a 	srai	r4,r16,20
    4658:	2101ffcc 	andi	r4,r4,2047
    465c:	00c00434 	movhi	r3,16
    4660:	213f0084 	addi	r4,r4,-1022
    4664:	1909d83a 	sra	r4,r3,r4
    4668:	00800434 	movhi	r2,16
    466c:	10bfffc4 	addi	r2,r2,-1
    4670:	2407883a 	add	r3,r4,r16
    4674:	1809d53a 	srai	r4,r3,20
    4678:	18ac703a 	and	r22,r3,r2
    467c:	b5800434 	orhi	r22,r22,16
    4680:	2101ffcc 	andi	r4,r4,2047
    4684:	213f0044 	addi	r4,r4,-1023
    4688:	110fd83a 	sra	r7,r2,r4
    468c:	00800504 	movi	r2,20
    4690:	1109c83a 	sub	r4,r2,r4
    4694:	b105d83a 	sra	r2,r22,r4
    4698:	01ce303a 	nor	r7,zero,r7
    469c:	38ce703a 	and	r7,r7,r3
    46a0:	d8800215 	stw	r2,8(sp)
    46a4:	8000020e 	bge	r16,zero,46b0 <__ieee754_pow+0xac0>
    46a8:	0085c83a 	sub	r2,zero,r2
    46ac:	d8800215 	stw	r2,8(sp)
    46b0:	000d883a 	mov	r6,zero
    46b4:	8809883a 	mov	r4,r17
    46b8:	900b883a 	mov	r5,r18
    46bc:	00090bc0 	call	90bc <__subdf3>
    46c0:	100d883a 	mov	r6,r2
    46c4:	180f883a 	mov	r7,r3
    46c8:	9809883a 	mov	r4,r19
    46cc:	a80b883a 	mov	r5,r21
    46d0:	182f883a 	mov	r23,r3
    46d4:	d8800015 	stw	r2,0(sp)
    46d8:	00074bc0 	call	74bc <__adddf3>
    46dc:	d8800217 	ldw	r2,8(sp)
    46e0:	dac00017 	ldw	r11,0(sp)
    46e4:	1839883a 	mov	fp,r3
    46e8:	1004953a 	slli	r2,r2,20
    46ec:	d8800115 	stw	r2,4(sp)
    46f0:	01cff9b4 	movhi	r7,16358
    46f4:	e00b883a 	mov	r5,fp
    46f8:	000d883a 	mov	r6,zero
    46fc:	39cb90c4 	addi	r7,r7,11843
    4700:	0009883a 	mov	r4,zero
    4704:	dac00015 	stw	r11,0(sp)
    4708:	00089100 	call	8910 <__muldf3>
    470c:	dac00017 	ldw	r11,0(sp)
    4710:	b80f883a 	mov	r7,r23
    4714:	e00b883a 	mov	r5,fp
    4718:	580d883a 	mov	r6,r11
    471c:	0009883a 	mov	r4,zero
    4720:	182f883a 	mov	r23,r3
    4724:	102d883a 	mov	r22,r2
    4728:	00090bc0 	call	90bc <__subdf3>
    472c:	9809883a 	mov	r4,r19
    4730:	a80b883a 	mov	r5,r21
    4734:	100d883a 	mov	r6,r2
    4738:	180f883a 	mov	r7,r3
    473c:	00090bc0 	call	90bc <__subdf3>
    4740:	01bfbeb4 	movhi	r6,65274
    4744:	01cff9b4 	movhi	r7,16358
    4748:	318e7bc4 	addi	r6,r6,14831
    474c:	39cb9084 	addi	r7,r7,11842
    4750:	1009883a 	mov	r4,r2
    4754:	180b883a 	mov	r5,r3
    4758:	00089100 	call	8910 <__muldf3>
    475c:	01832a34 	movhi	r6,3240
    4760:	01ef8834 	movhi	r7,48672
    4764:	e00b883a 	mov	r5,fp
    4768:	319b0e44 	addi	r6,r6,27705
    476c:	39d71844 	addi	r7,r7,23649
    4770:	0009883a 	mov	r4,zero
    4774:	1023883a 	mov	r17,r2
    4778:	1821883a 	mov	r16,r3
    477c:	00089100 	call	8910 <__muldf3>
    4780:	8809883a 	mov	r4,r17
    4784:	800b883a 	mov	r5,r16
    4788:	100d883a 	mov	r6,r2
    478c:	180f883a 	mov	r7,r3
    4790:	00074bc0 	call	74bc <__adddf3>
    4794:	b80b883a 	mov	r5,r23
    4798:	100d883a 	mov	r6,r2
    479c:	180f883a 	mov	r7,r3
    47a0:	b009883a 	mov	r4,r22
    47a4:	1027883a 	mov	r19,r2
    47a8:	1825883a 	mov	r18,r3
    47ac:	00074bc0 	call	74bc <__adddf3>
    47b0:	b80f883a 	mov	r7,r23
    47b4:	b00d883a 	mov	r6,r22
    47b8:	1009883a 	mov	r4,r2
    47bc:	180b883a 	mov	r5,r3
    47c0:	1023883a 	mov	r17,r2
    47c4:	1821883a 	mov	r16,r3
    47c8:	00090bc0 	call	90bc <__subdf3>
    47cc:	9809883a 	mov	r4,r19
    47d0:	900b883a 	mov	r5,r18
    47d4:	100d883a 	mov	r6,r2
    47d8:	180f883a 	mov	r7,r3
    47dc:	00090bc0 	call	90bc <__subdf3>
    47e0:	880d883a 	mov	r6,r17
    47e4:	800f883a 	mov	r7,r16
    47e8:	8809883a 	mov	r4,r17
    47ec:	800b883a 	mov	r5,r16
    47f0:	1039883a 	mov	fp,r2
    47f4:	182b883a 	mov	r21,r3
    47f8:	00089100 	call	8910 <__muldf3>
    47fc:	019caff4 	movhi	r6,29375
    4800:	01cf99b4 	movhi	r7,15974
    4804:	31a93404 	addi	r6,r6,-23344
    4808:	39cdda44 	addi	r7,r7,14185
    480c:	1009883a 	mov	r4,r2
    4810:	180b883a 	mov	r5,r3
    4814:	1027883a 	mov	r19,r2
    4818:	1825883a 	mov	r18,r3
    481c:	00089100 	call	8910 <__muldf3>
    4820:	01b174b4 	movhi	r6,50642
    4824:	01cfaf34 	movhi	r7,16060
    4828:	319afc44 	addi	r6,r6,27633
    482c:	39ef5044 	addi	r7,r7,-17087
    4830:	1009883a 	mov	r4,r2
    4834:	180b883a 	mov	r5,r3
    4838:	00090bc0 	call	90bc <__subdf3>
    483c:	980d883a 	mov	r6,r19
    4840:	900f883a 	mov	r7,r18
    4844:	1009883a 	mov	r4,r2
    4848:	180b883a 	mov	r5,r3
    484c:	00089100 	call	8910 <__muldf3>
    4850:	01abc9b4 	movhi	r6,44838
    4854:	01cfc474 	movhi	r7,16145
    4858:	31b78b04 	addi	r6,r6,-8660
    485c:	39d59a84 	addi	r7,r7,22122
    4860:	1009883a 	mov	r4,r2
    4864:	180b883a 	mov	r5,r3
    4868:	00074bc0 	call	74bc <__adddf3>
    486c:	980d883a 	mov	r6,r19
    4870:	900f883a 	mov	r7,r18
    4874:	1009883a 	mov	r4,r2
    4878:	180b883a 	mov	r5,r3
    487c:	00089100 	call	8910 <__muldf3>
    4880:	0185aff4 	movhi	r6,5823
    4884:	01cfd9f4 	movhi	r7,16231
    4888:	31af64c4 	addi	r6,r6,-17005
    488c:	39f05b04 	addi	r7,r7,-16020
    4890:	1009883a 	mov	r4,r2
    4894:	180b883a 	mov	r5,r3
    4898:	00090bc0 	call	90bc <__subdf3>
    489c:	980d883a 	mov	r6,r19
    48a0:	900f883a 	mov	r7,r18
    48a4:	1009883a 	mov	r4,r2
    48a8:	180b883a 	mov	r5,r3
    48ac:	00089100 	call	8910 <__muldf3>
    48b0:	01955574 	movhi	r6,21845
    48b4:	01cff174 	movhi	r7,16325
    48b8:	31954f84 	addi	r6,r6,21822
    48bc:	39d55544 	addi	r7,r7,21845
    48c0:	1009883a 	mov	r4,r2
    48c4:	180b883a 	mov	r5,r3
    48c8:	00074bc0 	call	74bc <__adddf3>
    48cc:	980d883a 	mov	r6,r19
    48d0:	900f883a 	mov	r7,r18
    48d4:	1009883a 	mov	r4,r2
    48d8:	180b883a 	mov	r5,r3
    48dc:	00089100 	call	8910 <__muldf3>
    48e0:	100d883a 	mov	r6,r2
    48e4:	180f883a 	mov	r7,r3
    48e8:	8809883a 	mov	r4,r17
    48ec:	800b883a 	mov	r5,r16
    48f0:	00090bc0 	call	90bc <__subdf3>
    48f4:	100d883a 	mov	r6,r2
    48f8:	180f883a 	mov	r7,r3
    48fc:	8809883a 	mov	r4,r17
    4900:	800b883a 	mov	r5,r16
    4904:	1027883a 	mov	r19,r2
    4908:	1825883a 	mov	r18,r3
    490c:	00089100 	call	8910 <__muldf3>
    4910:	9809883a 	mov	r4,r19
    4914:	900b883a 	mov	r5,r18
    4918:	000d883a 	mov	r6,zero
    491c:	01d00034 	movhi	r7,16384
    4920:	182f883a 	mov	r23,r3
    4924:	d8800015 	stw	r2,0(sp)
    4928:	00090bc0 	call	90bc <__subdf3>
    492c:	da400017 	ldw	r9,0(sp)
    4930:	100d883a 	mov	r6,r2
    4934:	180f883a 	mov	r7,r3
    4938:	4809883a 	mov	r4,r9
    493c:	b80b883a 	mov	r5,r23
    4940:	0007dac0 	call	7dac <__divdf3>
    4944:	e00d883a 	mov	r6,fp
    4948:	a80f883a 	mov	r7,r21
    494c:	8809883a 	mov	r4,r17
    4950:	800b883a 	mov	r5,r16
    4954:	1027883a 	mov	r19,r2
    4958:	1825883a 	mov	r18,r3
    495c:	00089100 	call	8910 <__muldf3>
    4960:	e00d883a 	mov	r6,fp
    4964:	a80f883a 	mov	r7,r21
    4968:	1009883a 	mov	r4,r2
    496c:	180b883a 	mov	r5,r3
    4970:	00074bc0 	call	74bc <__adddf3>
    4974:	100d883a 	mov	r6,r2
    4978:	180f883a 	mov	r7,r3
    497c:	9809883a 	mov	r4,r19
    4980:	900b883a 	mov	r5,r18
    4984:	00090bc0 	call	90bc <__subdf3>
    4988:	880d883a 	mov	r6,r17
    498c:	800f883a 	mov	r7,r16
    4990:	1009883a 	mov	r4,r2
    4994:	180b883a 	mov	r5,r3
    4998:	00090bc0 	call	90bc <__subdf3>
    499c:	100d883a 	mov	r6,r2
    49a0:	0009883a 	mov	r4,zero
    49a4:	014ffc34 	movhi	r5,16368
    49a8:	180f883a 	mov	r7,r3
    49ac:	00090bc0 	call	90bc <__subdf3>
    49b0:	180b883a 	mov	r5,r3
    49b4:	d8c00117 	ldw	r3,4(sp)
    49b8:	1009883a 	mov	r4,r2
    49bc:	194d883a 	add	r6,r3,r5
    49c0:	3007d53a 	srai	r3,r6,20
    49c4:	00c0b50e 	bge	zero,r3,4c9c <__ieee754_pow+0x10ac>
    49c8:	300b883a 	mov	r5,r6
    49cc:	000d883a 	mov	r6,zero
    49d0:	a00f883a 	mov	r7,r20
    49d4:	00089100 	call	8910 <__muldf3>
    49d8:	102d883a 	mov	r22,r2
    49dc:	003ca306 	br	3c6c <__ieee754_pow+0x7c>
    49e0:	88009016 	blt	r17,zero,4c24 <__ieee754_pow+0x1034>
    49e4:	202d883a 	mov	r22,r4
    49e8:	a807883a 	mov	r3,r21
    49ec:	003c9f06 	br	3c6c <__ieee754_pow+0x7c>
    49f0:	01200034 	movhi	r4,32768
    49f4:	213fffc4 	addi	r4,r4,-1
    49f8:	00902474 	movhi	r2,16529
    49fc:	1908703a 	and	r4,r3,r4
    4a00:	10b2ffc4 	addi	r2,r2,-13313
    4a04:	1100750e 	bge	r2,r4,4bdc <__ieee754_pow+0xfec>
    4a08:	008fdbf4 	movhi	r2,16239
    4a0c:	108d0004 	addi	r2,r2,13312
    4a10:	1885883a 	add	r2,r3,r2
    4a14:	1584b03a 	or	r2,r2,r22
    4a18:	10000b1e 	bne	r2,zero,4a48 <__ieee754_pow+0xe58>
    4a1c:	880d883a 	mov	r6,r17
    4a20:	900f883a 	mov	r7,r18
    4a24:	b009883a 	mov	r4,r22
    4a28:	180b883a 	mov	r5,r3
    4a2c:	00090bc0 	call	90bc <__subdf3>
    4a30:	980d883a 	mov	r6,r19
    4a34:	a80f883a 	mov	r7,r21
    4a38:	1009883a 	mov	r4,r2
    4a3c:	180b883a 	mov	r5,r3
    4a40:	00087400 	call	8740 <__gedf2>
    4a44:	103f0316 	blt	r2,zero,4654 <__ieee754_pow+0xa64>
    4a48:	0009883a 	mov	r4,zero
    4a4c:	000d883a 	mov	r6,zero
    4a50:	000f883a 	mov	r7,zero
    4a54:	a00b883a 	mov	r5,r20
    4a58:	00088280 	call	8828 <__ledf2>
    4a5c:	1008803a 	cmplt	r4,r2,zero
    4a60:	003cb906 	br	3d48 <__ieee754_pow+0x158>
    4a64:	050ffc34 	movhi	r20,16368
    4a68:	003eb806 	br	454c <__ieee754_pow+0x95c>
    4a6c:	000b883a 	mov	r5,zero
    4a70:	003d3906 	br	3f58 <__ieee754_pow+0x368>
    4a74:	008ffc34 	movhi	r2,16368
    4a78:	10bfff84 	addi	r2,r2,-2
    4a7c:	14fcb00e 	bge	r2,r19,3d40 <__ieee754_pow+0x150>
    4a80:	008ffc34 	movhi	r2,16368
    4a84:	14fcf616 	blt	r2,r19,3e60 <__ieee754_pow+0x270>
    4a88:	000d883a 	mov	r6,zero
    4a8c:	01cffc34 	movhi	r7,16368
    4a90:	180b883a 	mov	r5,r3
    4a94:	00090bc0 	call	90bc <__subdf3>
    4a98:	01cffdf4 	movhi	r7,16375
    4a9c:	01980034 	movhi	r6,24576
    4aa0:	39c551c4 	addi	r7,r7,5447
    4aa4:	1009883a 	mov	r4,r2
    4aa8:	180b883a 	mov	r5,r3
    4aac:	102b883a 	mov	r21,r2
    4ab0:	1827883a 	mov	r19,r3
    4ab4:	00089100 	call	8910 <__muldf3>
    4ab8:	01be17b4 	movhi	r6,63582
    4abc:	01cf9574 	movhi	r7,15957
    4ac0:	a809883a 	mov	r4,r21
    4ac4:	980b883a 	mov	r5,r19
    4ac8:	31b7d104 	addi	r6,r6,-8380
    4acc:	39eb82c4 	addi	r7,r7,-20981
    4ad0:	1039883a 	mov	fp,r2
    4ad4:	182f883a 	mov	r23,r3
    4ad8:	00089100 	call	8910 <__muldf3>
    4adc:	a809883a 	mov	r4,r21
    4ae0:	980b883a 	mov	r5,r19
    4ae4:	000d883a 	mov	r6,zero
    4ae8:	01cff434 	movhi	r7,16336
    4aec:	182d883a 	mov	r22,r3
    4af0:	d8800215 	stw	r2,8(sp)
    4af4:	00089100 	call	8910 <__muldf3>
    4af8:	01155574 	movhi	r4,21845
    4afc:	014ff574 	movhi	r5,16341
    4b00:	100d883a 	mov	r6,r2
    4b04:	180f883a 	mov	r7,r3
    4b08:	21155544 	addi	r4,r4,21845
    4b0c:	29555544 	addi	r5,r5,21845
    4b10:	00090bc0 	call	90bc <__subdf3>
    4b14:	a80d883a 	mov	r6,r21
    4b18:	980f883a 	mov	r7,r19
    4b1c:	1009883a 	mov	r4,r2
    4b20:	180b883a 	mov	r5,r3
    4b24:	00089100 	call	8910 <__muldf3>
    4b28:	100d883a 	mov	r6,r2
    4b2c:	180f883a 	mov	r7,r3
    4b30:	0009883a 	mov	r4,zero
    4b34:	014ff834 	movhi	r5,16352
    4b38:	00090bc0 	call	90bc <__subdf3>
    4b3c:	a80d883a 	mov	r6,r21
    4b40:	980f883a 	mov	r7,r19
    4b44:	a809883a 	mov	r4,r21
    4b48:	980b883a 	mov	r5,r19
    4b4c:	d8800115 	stw	r2,4(sp)
    4b50:	d8c00015 	stw	r3,0(sp)
    4b54:	00089100 	call	8910 <__muldf3>
    4b58:	da800117 	ldw	r10,4(sp)
    4b5c:	da400017 	ldw	r9,0(sp)
    4b60:	100d883a 	mov	r6,r2
    4b64:	5009883a 	mov	r4,r10
    4b68:	480b883a 	mov	r5,r9
    4b6c:	180f883a 	mov	r7,r3
    4b70:	00089100 	call	8910 <__muldf3>
    4b74:	01994b34 	movhi	r6,25900
    4b78:	01cffdf4 	movhi	r7,16375
    4b7c:	31a0bf84 	addi	r6,r6,-32002
    4b80:	39c551c4 	addi	r7,r7,5447
    4b84:	1009883a 	mov	r4,r2
    4b88:	180b883a 	mov	r5,r3
    4b8c:	00089100 	call	8910 <__muldf3>
    4b90:	da000217 	ldw	r8,8(sp)
    4b94:	b00b883a 	mov	r5,r22
    4b98:	100d883a 	mov	r6,r2
    4b9c:	4009883a 	mov	r4,r8
    4ba0:	180f883a 	mov	r7,r3
    4ba4:	00090bc0 	call	90bc <__subdf3>
    4ba8:	100d883a 	mov	r6,r2
    4bac:	180f883a 	mov	r7,r3
    4bb0:	e009883a 	mov	r4,fp
    4bb4:	b80b883a 	mov	r5,r23
    4bb8:	102d883a 	mov	r22,r2
    4bbc:	182b883a 	mov	r21,r3
    4bc0:	00074bc0 	call	74bc <__adddf3>
    4bc4:	1827883a 	mov	r19,r3
    4bc8:	e00d883a 	mov	r6,fp
    4bcc:	b80f883a 	mov	r7,r23
    4bd0:	0009883a 	mov	r4,zero
    4bd4:	180b883a 	mov	r5,r3
    4bd8:	003e5006 	br	451c <__ieee754_pow+0x92c>
    4bdc:	008ff834 	movhi	r2,16352
    4be0:	11004316 	blt	r2,r4,4cf0 <__ieee754_pow+0x1100>
    4be4:	d8000115 	stw	zero,4(sp)
    4be8:	d8000215 	stw	zero,8(sp)
    4bec:	003ec006 	br	46f0 <__ieee754_pow+0xb00>
    4bf0:	0007883a 	mov	r3,zero
    4bf4:	003c1d06 	br	3c6c <__ieee754_pow+0x7c>
    4bf8:	883ffd0e 	bge	r17,zero,4bf0 <__ieee754_pow+0x1000>
    4bfc:	88e0003c 	xorhi	r3,r17,32768
    4c00:	003c1a06 	br	3c6c <__ieee754_pow+0x7c>
    4c04:	803c781e 	bne	r16,zero,3de8 <__ieee754_pow+0x1f8>
    4c08:	00c00504 	movi	r3,20
    4c0c:	1885c83a 	sub	r2,r3,r2
    4c10:	3087d83a 	sra	r3,r6,r2
    4c14:	1884983a 	sll	r2,r3,r2
    4c18:	11803126 	beq	r2,r6,4ce0 <__ieee754_pow+0x10f0>
    4c1c:	0025883a 	mov	r18,zero
    4c20:	003c5d06 	br	3d98 <__ieee754_pow+0x1a8>
    4c24:	200d883a 	mov	r6,r4
    4c28:	a80f883a 	mov	r7,r21
    4c2c:	0009883a 	mov	r4,zero
    4c30:	014ffc34 	movhi	r5,16368
    4c34:	0007dac0 	call	7dac <__divdf3>
    4c38:	102d883a 	mov	r22,r2
    4c3c:	003c0b06 	br	3c6c <__ieee754_pow+0x7c>
    4c40:	200d883a 	mov	r6,r4
    4c44:	a80f883a 	mov	r7,r21
    4c48:	a80b883a 	mov	r5,r21
    4c4c:	00089100 	call	8910 <__muldf3>
    4c50:	102d883a 	mov	r22,r2
    4c54:	003c0506 	br	3c6c <__ieee754_pow+0x7c>
    4c58:	94800058 	cmpnei	r18,r18,1
    4c5c:	903c031e 	bne	r18,zero,3c6c <__ieee754_pow+0x7c>
    4c60:	18e0003c 	xorhi	r3,r3,32768
    4c64:	003c0106 	br	3c6c <__ieee754_pow+0x7c>
    4c68:	008ff8f4 	movhi	r2,16355
    4c6c:	10ae00c4 	addi	r2,r2,-18429
    4c70:	00d0f434 	movhi	r3,17360
    4c74:	03cf9374 	movhi	r15,15949
    4c78:	01100034 	movhi	r4,16384
    4c7c:	d8800115 	stw	r2,4(sp)
    4c80:	18b40184 	addi	r2,r3,-12282
    4c84:	d9000015 	stw	r4,0(sp)
    4c88:	d8800a15 	stw	r2,40(sp)
    4c8c:	7bff7ac4 	addi	r15,r15,-533
    4c90:	05c00134 	movhi	r23,4
    4c94:	034ffe34 	movhi	r13,16376
    4c98:	003cc506 	br	3fb0 <__ieee754_pow+0x3c0>
    4c9c:	d9800217 	ldw	r6,8(sp)
    4ca0:	0006dd80 	call	6dd8 <scalbn>
    4ca4:	1009883a 	mov	r4,r2
    4ca8:	180b883a 	mov	r5,r3
    4cac:	003f4706 	br	49cc <__ieee754_pow+0xddc>
    4cb0:	0009883a 	mov	r4,zero
    4cb4:	000d883a 	mov	r6,zero
    4cb8:	000f883a 	mov	r7,zero
    4cbc:	a00b883a 	mov	r5,r20
    4cc0:	00088280 	call	8828 <__ledf2>
    4cc4:	1008803a 	cmplt	r4,r2,zero
    4cc8:	003c6706 	br	3e68 <__ieee754_pow+0x278>
    4ccc:	18c0004c 	andi	r3,r3,1
    4cd0:	04800084 	movi	r18,2
    4cd4:	90e5c83a 	sub	r18,r18,r3
    4cd8:	803c2f26 	beq	r16,zero,3d98 <__ieee754_pow+0x1a8>
    4cdc:	003c0906 	br	3d04 <__ieee754_pow+0x114>
    4ce0:	18c0004c 	andi	r3,r3,1
    4ce4:	04800084 	movi	r18,2
    4ce8:	90e5c83a 	sub	r18,r18,r3
    4cec:	003c2a06 	br	3d98 <__ieee754_pow+0x1a8>
    4cf0:	2009d53a 	srai	r4,r4,20
    4cf4:	003e5906 	br	465c <__ieee754_pow+0xa6c>

00004cf8 <__ieee754_rem_pio2>:
    4cf8:	deffea04 	addi	sp,sp,-88
    4cfc:	dc000c15 	stw	r16,48(sp)
    4d00:	04200034 	movhi	r16,32768
    4d04:	843fffc4 	addi	r16,r16,-1
    4d08:	008ffa74 	movhi	r2,16361
    4d0c:	dcc00f15 	stw	r19,60(sp)
    4d10:	dc800e15 	stw	r18,56(sp)
    4d14:	dc400d15 	stw	r17,52(sp)
    4d18:	dfc01515 	stw	ra,84(sp)
    4d1c:	df001415 	stw	fp,80(sp)
    4d20:	ddc01315 	stw	r23,76(sp)
    4d24:	dd801215 	stw	r22,72(sp)
    4d28:	dd401115 	stw	r21,68(sp)
    4d2c:	dd001015 	stw	r20,64(sp)
    4d30:	2c20703a 	and	r16,r5,r16
    4d34:	10887ec4 	addi	r2,r2,8699
    4d38:	2825883a 	mov	r18,r5
    4d3c:	2027883a 	mov	r19,r4
    4d40:	3023883a 	mov	r17,r6
    4d44:	14008b0e 	bge	r2,r16,4f74 <__ieee754_rem_pio2+0x27c>
    4d48:	009000f4 	movhi	r2,16387
    4d4c:	10b65ec4 	addi	r2,r2,-9861
    4d50:	14002f16 	blt	r2,r16,4e10 <__ieee754_rem_pio2+0x118>
    4d54:	01cffe74 	movhi	r7,16377
    4d58:	01951034 	movhi	r6,21568
    4d5c:	39c87ec4 	addi	r7,r7,8699
    4d60:	01417e0e 	bge	zero,r5,535c <__ieee754_rem_pio2+0x664>
    4d64:	00090bc0 	call	90bc <__subdf3>
    4d68:	018ffe74 	movhi	r6,16377
    4d6c:	31887ec4 	addi	r6,r6,8699
    4d70:	1009883a 	mov	r4,r2
    4d74:	180b883a 	mov	r5,r3
    4d78:	8180cb26 	beq	r16,r6,50a8 <__ieee754_rem_pio2+0x3b0>
    4d7c:	018698b4 	movhi	r6,6754
    4d80:	01cf7474 	movhi	r7,15825
    4d84:	3198cc44 	addi	r6,r6,25393
    4d88:	39ed1844 	addi	r7,r7,-19359
    4d8c:	d8800315 	stw	r2,12(sp)
    4d90:	d8c00215 	stw	r3,8(sp)
    4d94:	00090bc0 	call	90bc <__subdf3>
    4d98:	d9000317 	ldw	r4,12(sp)
    4d9c:	d9400217 	ldw	r5,8(sp)
    4da0:	100d883a 	mov	r6,r2
    4da4:	180f883a 	mov	r7,r3
    4da8:	88800015 	stw	r2,0(r17)
    4dac:	88c00115 	stw	r3,4(r17)
    4db0:	00090bc0 	call	90bc <__subdf3>
    4db4:	018698b4 	movhi	r6,6754
    4db8:	01cf7474 	movhi	r7,15825
    4dbc:	3198cc44 	addi	r6,r6,25393
    4dc0:	39ed1844 	addi	r7,r7,-19359
    4dc4:	1009883a 	mov	r4,r2
    4dc8:	180b883a 	mov	r5,r3
    4dcc:	00090bc0 	call	90bc <__subdf3>
    4dd0:	88800215 	stw	r2,8(r17)
    4dd4:	88c00315 	stw	r3,12(r17)
    4dd8:	05000044 	movi	r20,1
    4ddc:	a005883a 	mov	r2,r20
    4de0:	dfc01517 	ldw	ra,84(sp)
    4de4:	df001417 	ldw	fp,80(sp)
    4de8:	ddc01317 	ldw	r23,76(sp)
    4dec:	dd801217 	ldw	r22,72(sp)
    4df0:	dd401117 	ldw	r21,68(sp)
    4df4:	dd001017 	ldw	r20,64(sp)
    4df8:	dcc00f17 	ldw	r19,60(sp)
    4dfc:	dc800e17 	ldw	r18,56(sp)
    4e00:	dc400d17 	ldw	r17,52(sp)
    4e04:	dc000c17 	ldw	r16,48(sp)
    4e08:	dec01604 	addi	sp,sp,88
    4e0c:	f800283a 	ret
    4e10:	00904e74 	movhi	r2,16697
    4e14:	10887ec4 	addi	r2,r2,8699
    4e18:	14005c16 	blt	r2,r16,4f8c <__ieee754_rem_pio2+0x294>
    4e1c:	019b72b4 	movhi	r6,28106
    4e20:	01cff934 	movhi	r7,16356
    4e24:	31b220c4 	addi	r6,r6,-14205
    4e28:	39d7cc04 	addi	r7,r7,24368
    4e2c:	800b883a 	mov	r5,r16
    4e30:	00089100 	call	8910 <__muldf3>
    4e34:	000d883a 	mov	r6,zero
    4e38:	01cff834 	movhi	r7,16352
    4e3c:	1009883a 	mov	r4,r2
    4e40:	180b883a 	mov	r5,r3
    4e44:	00074bc0 	call	74bc <__adddf3>
    4e48:	180b883a 	mov	r5,r3
    4e4c:	1009883a 	mov	r4,r2
    4e50:	0009a1c0 	call	9a1c <__fixdfsi>
    4e54:	1009883a 	mov	r4,r2
    4e58:	1029883a 	mov	r20,r2
    4e5c:	0009a9c0 	call	9a9c <__floatsidf>
    4e60:	01cffe74 	movhi	r7,16377
    4e64:	01951034 	movhi	r6,21568
    4e68:	39c87ec4 	addi	r7,r7,8699
    4e6c:	1009883a 	mov	r4,r2
    4e70:	180b883a 	mov	r5,r3
    4e74:	102d883a 	mov	r22,r2
    4e78:	182b883a 	mov	r21,r3
    4e7c:	00089100 	call	8910 <__muldf3>
    4e80:	9809883a 	mov	r4,r19
    4e84:	100d883a 	mov	r6,r2
    4e88:	180f883a 	mov	r7,r3
    4e8c:	800b883a 	mov	r5,r16
    4e90:	00090bc0 	call	90bc <__subdf3>
    4e94:	018698b4 	movhi	r6,6754
    4e98:	01cf7474 	movhi	r7,15825
    4e9c:	3198cc44 	addi	r6,r6,25393
    4ea0:	39ed1844 	addi	r7,r7,-19359
    4ea4:	b009883a 	mov	r4,r22
    4ea8:	a80b883a 	mov	r5,r21
    4eac:	1039883a 	mov	fp,r2
    4eb0:	d8c00215 	stw	r3,8(sp)
    4eb4:	00089100 	call	8910 <__muldf3>
    4eb8:	db000217 	ldw	r12,8(sp)
    4ebc:	e009883a 	mov	r4,fp
    4ec0:	100d883a 	mov	r6,r2
    4ec4:	600b883a 	mov	r5,r12
    4ec8:	180f883a 	mov	r7,r3
    4ecc:	db000315 	stw	r12,12(sp)
    4ed0:	102f883a 	mov	r23,r2
    4ed4:	1827883a 	mov	r19,r3
    4ed8:	df000415 	stw	fp,16(sp)
    4edc:	00090bc0 	call	90bc <__subdf3>
    4ee0:	a1000808 	cmpgei	r4,r20,32
    4ee4:	db000317 	ldw	r12,12(sp)
    4ee8:	1017883a 	mov	r11,r2
    4eec:	1815883a 	mov	r10,r3
    4ef0:	e01b883a 	mov	r13,fp
    4ef4:	2000851e 	bne	r4,zero,510c <__ieee754_rem_pio2+0x414>
    4ef8:	a00a90ba 	slli	r5,r20,2
    4efc:	01000074 	movhi	r4,1
    4f00:	2909883a 	add	r4,r5,r4
    4f04:	211de817 	ldw	r4,30624(r4)
    4f08:	24008026 	beq	r4,r16,510c <__ieee754_rem_pio2+0x414>
    4f0c:	88800015 	stw	r2,0(r17)
    4f10:	88c00115 	stw	r3,4(r17)
    4f14:	580d883a 	mov	r6,r11
    4f18:	500f883a 	mov	r7,r10
    4f1c:	6809883a 	mov	r4,r13
    4f20:	600b883a 	mov	r5,r12
    4f24:	dac00315 	stw	r11,12(sp)
    4f28:	da800215 	stw	r10,8(sp)
    4f2c:	00090bc0 	call	90bc <__subdf3>
    4f30:	b80d883a 	mov	r6,r23
    4f34:	980f883a 	mov	r7,r19
    4f38:	1009883a 	mov	r4,r2
    4f3c:	180b883a 	mov	r5,r3
    4f40:	00090bc0 	call	90bc <__subdf3>
    4f44:	88800215 	stw	r2,8(r17)
    4f48:	88c00315 	stw	r3,12(r17)
    4f4c:	903fa30e 	bge	r18,zero,4ddc <__ieee754_rem_pio2+0xe4>
    4f50:	da800217 	ldw	r10,8(sp)
    4f54:	dac00317 	ldw	r11,12(sp)
    4f58:	18e0003c 	xorhi	r3,r3,32768
    4f5c:	52a0003c 	xorhi	r10,r10,32768
    4f60:	8ac00015 	stw	r11,0(r17)
    4f64:	8a800115 	stw	r10,4(r17)
    4f68:	88c00315 	stw	r3,12(r17)
    4f6c:	0529c83a 	sub	r20,zero,r20
    4f70:	003f9a06 	br	4ddc <__ieee754_rem_pio2+0xe4>
    4f74:	89000015 	stw	r4,0(r17)
    4f78:	89400115 	stw	r5,4(r17)
    4f7c:	30000215 	stw	zero,8(r6)
    4f80:	30000315 	stw	zero,12(r6)
    4f84:	0029883a 	mov	r20,zero
    4f88:	003f9406 	br	4ddc <__ieee754_rem_pio2+0xe4>
    4f8c:	009ffc34 	movhi	r2,32752
    4f90:	8080670e 	bge	r16,r2,5130 <__ieee754_rem_pio2+0x438>
    4f94:	8029d53a 	srai	r20,r16,20
    4f98:	a53efa84 	addi	r20,r20,-1046
    4f9c:	a00a953a 	slli	r5,r20,20
    4fa0:	8161c83a 	sub	r16,r16,r5
    4fa4:	800b883a 	mov	r5,r16
    4fa8:	0009a1c0 	call	9a1c <__fixdfsi>
    4fac:	1009883a 	mov	r4,r2
    4fb0:	0009a9c0 	call	9a9c <__floatsidf>
    4fb4:	9809883a 	mov	r4,r19
    4fb8:	800b883a 	mov	r5,r16
    4fbc:	100d883a 	mov	r6,r2
    4fc0:	180f883a 	mov	r7,r3
    4fc4:	d8800615 	stw	r2,24(sp)
    4fc8:	d8c00715 	stw	r3,28(sp)
    4fcc:	00090bc0 	call	90bc <__subdf3>
    4fd0:	000d883a 	mov	r6,zero
    4fd4:	01d05c34 	movhi	r7,16752
    4fd8:	1009883a 	mov	r4,r2
    4fdc:	180b883a 	mov	r5,r3
    4fe0:	00089100 	call	8910 <__muldf3>
    4fe4:	180b883a 	mov	r5,r3
    4fe8:	1009883a 	mov	r4,r2
    4fec:	1821883a 	mov	r16,r3
    4ff0:	1027883a 	mov	r19,r2
    4ff4:	0009a1c0 	call	9a1c <__fixdfsi>
    4ff8:	1009883a 	mov	r4,r2
    4ffc:	102b883a 	mov	r21,r2
    5000:	0009a9c0 	call	9a9c <__floatsidf>
    5004:	100d883a 	mov	r6,r2
    5008:	180f883a 	mov	r7,r3
    500c:	9809883a 	mov	r4,r19
    5010:	800b883a 	mov	r5,r16
    5014:	d8800815 	stw	r2,32(sp)
    5018:	d8c00915 	stw	r3,36(sp)
    501c:	00090bc0 	call	90bc <__subdf3>
    5020:	000d883a 	mov	r6,zero
    5024:	01d05c34 	movhi	r7,16752
    5028:	1009883a 	mov	r4,r2
    502c:	180b883a 	mov	r5,r3
    5030:	00089100 	call	8910 <__muldf3>
    5034:	1009883a 	mov	r4,r2
    5038:	180b883a 	mov	r5,r3
    503c:	000d883a 	mov	r6,zero
    5040:	000f883a 	mov	r7,zero
    5044:	d8800a15 	stw	r2,40(sp)
    5048:	d8c00b15 	stw	r3,44(sp)
    504c:	00086c00 	call	86c0 <__eqdf2>
    5050:	1000c01e 	bne	r2,zero,5354 <__ieee754_rem_pio2+0x65c>
    5054:	a800bd1e 	bne	r21,zero,534c <__ieee754_rem_pio2+0x654>
    5058:	01c00044 	movi	r7,1
    505c:	00800074 	movhi	r2,1
    5060:	109e0904 	addi	r2,r2,30756
    5064:	d8800115 	stw	r2,4(sp)
    5068:	00800084 	movi	r2,2
    506c:	a00d883a 	mov	r6,r20
    5070:	d8800015 	stw	r2,0(sp)
    5074:	880b883a 	mov	r5,r17
    5078:	d9000604 	addi	r4,sp,24
    507c:	0005b5c0 	call	5b5c <__kernel_rem_pio2>
    5080:	1029883a 	mov	r20,r2
    5084:	903f550e 	bge	r18,zero,4ddc <__ieee754_rem_pio2+0xe4>
    5088:	88c00117 	ldw	r3,4(r17)
    508c:	88800317 	ldw	r2,12(r17)
    5090:	0529c83a 	sub	r20,zero,r20
    5094:	18e0003c 	xorhi	r3,r3,32768
    5098:	10a0003c 	xorhi	r2,r2,32768
    509c:	88c00115 	stw	r3,4(r17)
    50a0:	88800315 	stw	r2,12(r17)
    50a4:	003f4d06 	br	4ddc <__ieee754_rem_pio2+0xe4>
    50a8:	01cf7474 	movhi	r7,15825
    50ac:	01869834 	movhi	r6,6752
    50b0:	39ed1844 	addi	r7,r7,-19359
    50b4:	00090bc0 	call	90bc <__subdf3>
    50b8:	018b80f4 	movhi	r6,11779
    50bc:	01cee8f4 	movhi	r7,15267
    50c0:	319c1cc4 	addi	r6,r6,28787
    50c4:	39c66284 	addi	r7,r7,6538
    50c8:	1009883a 	mov	r4,r2
    50cc:	180b883a 	mov	r5,r3
    50d0:	1025883a 	mov	r18,r2
    50d4:	1821883a 	mov	r16,r3
    50d8:	00090bc0 	call	90bc <__subdf3>
    50dc:	100d883a 	mov	r6,r2
    50e0:	180f883a 	mov	r7,r3
    50e4:	9009883a 	mov	r4,r18
    50e8:	800b883a 	mov	r5,r16
    50ec:	88800015 	stw	r2,0(r17)
    50f0:	88c00115 	stw	r3,4(r17)
    50f4:	00090bc0 	call	90bc <__subdf3>
    50f8:	018b80f4 	movhi	r6,11779
    50fc:	01cee8f4 	movhi	r7,15267
    5100:	319c1cc4 	addi	r6,r6,28787
    5104:	39c66284 	addi	r7,r7,6538
    5108:	003f2e06 	br	4dc4 <__ieee754_rem_pio2+0xcc>
    510c:	1812d53a 	srli	r9,r3,20
    5110:	8021d53a 	srai	r16,r16,20
    5114:	4a41ffcc 	andi	r9,r9,2047
    5118:	8253c83a 	sub	r9,r16,r9
    511c:	4a400448 	cmpgei	r9,r9,17
    5120:	48000c1e 	bne	r9,zero,5154 <__ieee754_rem_pio2+0x45c>
    5124:	88800015 	stw	r2,0(r17)
    5128:	88c00115 	stw	r3,4(r17)
    512c:	003f7906 	br	4f14 <__ieee754_rem_pio2+0x21c>
    5130:	200d883a 	mov	r6,r4
    5134:	280f883a 	mov	r7,r5
    5138:	00090bc0 	call	90bc <__subdf3>
    513c:	88800215 	stw	r2,8(r17)
    5140:	88c00315 	stw	r3,12(r17)
    5144:	88800015 	stw	r2,0(r17)
    5148:	88c00115 	stw	r3,4(r17)
    514c:	0029883a 	mov	r20,zero
    5150:	003f2206 	br	4ddc <__ieee754_rem_pio2+0xe4>
    5154:	01cf7474 	movhi	r7,15825
    5158:	01869834 	movhi	r6,6752
    515c:	39ed1844 	addi	r7,r7,-19359
    5160:	b009883a 	mov	r4,r22
    5164:	a80b883a 	mov	r5,r21
    5168:	00089100 	call	8910 <__muldf3>
    516c:	d9400217 	ldw	r5,8(sp)
    5170:	100d883a 	mov	r6,r2
    5174:	180f883a 	mov	r7,r3
    5178:	e009883a 	mov	r4,fp
    517c:	102f883a 	mov	r23,r2
    5180:	1827883a 	mov	r19,r3
    5184:	00090bc0 	call	90bc <__subdf3>
    5188:	d9400217 	ldw	r5,8(sp)
    518c:	100d883a 	mov	r6,r2
    5190:	180f883a 	mov	r7,r3
    5194:	e009883a 	mov	r4,fp
    5198:	d8800315 	stw	r2,12(sp)
    519c:	d8c00415 	stw	r3,16(sp)
    51a0:	00090bc0 	call	90bc <__subdf3>
    51a4:	b80d883a 	mov	r6,r23
    51a8:	980f883a 	mov	r7,r19
    51ac:	1009883a 	mov	r4,r2
    51b0:	180b883a 	mov	r5,r3
    51b4:	00090bc0 	call	90bc <__subdf3>
    51b8:	018b80f4 	movhi	r6,11779
    51bc:	01cee8f4 	movhi	r7,15267
    51c0:	319c1cc4 	addi	r6,r6,28787
    51c4:	39c66284 	addi	r7,r7,6538
    51c8:	b009883a 	mov	r4,r22
    51cc:	a80b883a 	mov	r5,r21
    51d0:	102f883a 	mov	r23,r2
    51d4:	1827883a 	mov	r19,r3
    51d8:	00089100 	call	8910 <__muldf3>
    51dc:	b80d883a 	mov	r6,r23
    51e0:	980f883a 	mov	r7,r19
    51e4:	1009883a 	mov	r4,r2
    51e8:	180b883a 	mov	r5,r3
    51ec:	00090bc0 	call	90bc <__subdf3>
    51f0:	da400417 	ldw	r9,16(sp)
    51f4:	db800317 	ldw	r14,12(sp)
    51f8:	100d883a 	mov	r6,r2
    51fc:	480b883a 	mov	r5,r9
    5200:	7009883a 	mov	r4,r14
    5204:	180f883a 	mov	r7,r3
    5208:	da400215 	stw	r9,8(sp)
    520c:	102f883a 	mov	r23,r2
    5210:	1827883a 	mov	r19,r3
    5214:	00090bc0 	call	90bc <__subdf3>
    5218:	1815883a 	mov	r10,r3
    521c:	1806d53a 	srli	r3,r3,20
    5220:	da400217 	ldw	r9,8(sp)
    5224:	db800317 	ldw	r14,12(sp)
    5228:	18c1ffcc 	andi	r3,r3,2047
    522c:	80e1c83a 	sub	r16,r16,r3
    5230:	84000c88 	cmpgei	r16,r16,50
    5234:	1017883a 	mov	r11,r2
    5238:	80003f26 	beq	r16,zero,5338 <__ieee754_rem_pio2+0x640>
    523c:	01cee8f4 	movhi	r7,15267
    5240:	018b8034 	movhi	r6,11776
    5244:	39c66284 	addi	r7,r7,6538
    5248:	b009883a 	mov	r4,r22
    524c:	a80b883a 	mov	r5,r21
    5250:	da400315 	stw	r9,12(sp)
    5254:	db800215 	stw	r14,8(sp)
    5258:	00089100 	call	8910 <__muldf3>
    525c:	db800217 	ldw	r14,8(sp)
    5260:	da400317 	ldw	r9,12(sp)
    5264:	100d883a 	mov	r6,r2
    5268:	7009883a 	mov	r4,r14
    526c:	480b883a 	mov	r5,r9
    5270:	180f883a 	mov	r7,r3
    5274:	1027883a 	mov	r19,r2
    5278:	1821883a 	mov	r16,r3
    527c:	db800515 	stw	r14,20(sp)
    5280:	da400415 	stw	r9,16(sp)
    5284:	00090bc0 	call	90bc <__subdf3>
    5288:	db800517 	ldw	r14,20(sp)
    528c:	da400417 	ldw	r9,16(sp)
    5290:	100d883a 	mov	r6,r2
    5294:	7009883a 	mov	r4,r14
    5298:	480b883a 	mov	r5,r9
    529c:	180f883a 	mov	r7,r3
    52a0:	d8800315 	stw	r2,12(sp)
    52a4:	d8c00215 	stw	r3,8(sp)
    52a8:	00090bc0 	call	90bc <__subdf3>
    52ac:	980d883a 	mov	r6,r19
    52b0:	800f883a 	mov	r7,r16
    52b4:	1009883a 	mov	r4,r2
    52b8:	180b883a 	mov	r5,r3
    52bc:	00090bc0 	call	90bc <__subdf3>
    52c0:	01894834 	movhi	r6,9504
    52c4:	01ce5f34 	movhi	r7,14716
    52c8:	31927044 	addi	r6,r6,18881
    52cc:	39e0e684 	addi	r7,r7,-31846
    52d0:	b009883a 	mov	r4,r22
    52d4:	a80b883a 	mov	r5,r21
    52d8:	1027883a 	mov	r19,r2
    52dc:	1821883a 	mov	r16,r3
    52e0:	00089100 	call	8910 <__muldf3>
    52e4:	980d883a 	mov	r6,r19
    52e8:	800f883a 	mov	r7,r16
    52ec:	1009883a 	mov	r4,r2
    52f0:	180b883a 	mov	r5,r3
    52f4:	00090bc0 	call	90bc <__subdf3>
    52f8:	db400317 	ldw	r13,12(sp)
    52fc:	db000217 	ldw	r12,8(sp)
    5300:	100d883a 	mov	r6,r2
    5304:	6809883a 	mov	r4,r13
    5308:	600b883a 	mov	r5,r12
    530c:	180f883a 	mov	r7,r3
    5310:	102f883a 	mov	r23,r2
    5314:	1827883a 	mov	r19,r3
    5318:	00090bc0 	call	90bc <__subdf3>
    531c:	db400317 	ldw	r13,12(sp)
    5320:	db000217 	ldw	r12,8(sp)
    5324:	1017883a 	mov	r11,r2
    5328:	1815883a 	mov	r10,r3
    532c:	88800015 	stw	r2,0(r17)
    5330:	88c00115 	stw	r3,4(r17)
    5334:	003ef706 	br	4f14 <__ieee754_rem_pio2+0x21c>
    5338:	88800015 	stw	r2,0(r17)
    533c:	8a800115 	stw	r10,4(r17)
    5340:	701b883a 	mov	r13,r14
    5344:	4819883a 	mov	r12,r9
    5348:	003ef206 	br	4f14 <__ieee754_rem_pio2+0x21c>
    534c:	01c00084 	movi	r7,2
    5350:	003f4206 	br	505c <__ieee754_rem_pio2+0x364>
    5354:	01c000c4 	movi	r7,3
    5358:	003f4006 	br	505c <__ieee754_rem_pio2+0x364>
    535c:	00074bc0 	call	74bc <__adddf3>
    5360:	010ffe74 	movhi	r4,16377
    5364:	21087ec4 	addi	r4,r4,8699
    5368:	1027883a 	mov	r19,r2
    536c:	1825883a 	mov	r18,r3
    5370:	81001926 	beq	r16,r4,53d8 <__ieee754_rem_pio2+0x6e0>
    5374:	018698b4 	movhi	r6,6754
    5378:	01cf7474 	movhi	r7,15825
    537c:	3198cc44 	addi	r6,r6,25393
    5380:	39ed1844 	addi	r7,r7,-19359
    5384:	1009883a 	mov	r4,r2
    5388:	180b883a 	mov	r5,r3
    538c:	00074bc0 	call	74bc <__adddf3>
    5390:	100d883a 	mov	r6,r2
    5394:	180f883a 	mov	r7,r3
    5398:	9809883a 	mov	r4,r19
    539c:	900b883a 	mov	r5,r18
    53a0:	88800015 	stw	r2,0(r17)
    53a4:	88c00115 	stw	r3,4(r17)
    53a8:	00090bc0 	call	90bc <__subdf3>
    53ac:	018698b4 	movhi	r6,6754
    53b0:	01cf7474 	movhi	r7,15825
    53b4:	3198cc44 	addi	r6,r6,25393
    53b8:	39ed1844 	addi	r7,r7,-19359
    53bc:	1009883a 	mov	r4,r2
    53c0:	180b883a 	mov	r5,r3
    53c4:	00074bc0 	call	74bc <__adddf3>
    53c8:	88800215 	stw	r2,8(r17)
    53cc:	88c00315 	stw	r3,12(r17)
    53d0:	053fffc4 	movi	r20,-1
    53d4:	003e8106 	br	4ddc <__ieee754_rem_pio2+0xe4>
    53d8:	01cf7474 	movhi	r7,15825
    53dc:	01869834 	movhi	r6,6752
    53e0:	39ed1844 	addi	r7,r7,-19359
    53e4:	1009883a 	mov	r4,r2
    53e8:	180b883a 	mov	r5,r3
    53ec:	00074bc0 	call	74bc <__adddf3>
    53f0:	018b80f4 	movhi	r6,11779
    53f4:	01cee8f4 	movhi	r7,15267
    53f8:	319c1cc4 	addi	r6,r6,28787
    53fc:	39c66284 	addi	r7,r7,6538
    5400:	1009883a 	mov	r4,r2
    5404:	180b883a 	mov	r5,r3
    5408:	1025883a 	mov	r18,r2
    540c:	1821883a 	mov	r16,r3
    5410:	00074bc0 	call	74bc <__adddf3>
    5414:	100d883a 	mov	r6,r2
    5418:	180f883a 	mov	r7,r3
    541c:	9009883a 	mov	r4,r18
    5420:	800b883a 	mov	r5,r16
    5424:	88800015 	stw	r2,0(r17)
    5428:	88c00115 	stw	r3,4(r17)
    542c:	00090bc0 	call	90bc <__subdf3>
    5430:	018b80f4 	movhi	r6,11779
    5434:	01cee8f4 	movhi	r7,15267
    5438:	319c1cc4 	addi	r6,r6,28787
    543c:	39c66284 	addi	r7,r7,6538
    5440:	003fde06 	br	53bc <__ieee754_rem_pio2+0x6c4>

00005444 <__ieee754_sqrt>:
    5444:	defffd04 	addi	sp,sp,-12
    5448:	dc400115 	stw	r17,4(sp)
    544c:	dc000015 	stw	r16,0(sp)
    5450:	dfc00215 	stw	ra,8(sp)
    5454:	28dffc2c 	andhi	r3,r5,32752
    5458:	009ffc34 	movhi	r2,32752
    545c:	2821883a 	mov	r16,r5
    5460:	2023883a 	mov	r17,r4
    5464:	18807726 	beq	r3,r2,5644 <__ieee754_sqrt+0x200>
    5468:	2011883a 	mov	r8,r4
    546c:	01403a0e 	bge	zero,r5,5558 <__ieee754_sqrt+0x114>
    5470:	2807d53a 	srai	r3,r5,20
    5474:	18004626 	beq	r3,zero,5590 <__ieee754_sqrt+0x14c>
    5478:	00800434 	movhi	r2,16
    547c:	1aff0044 	addi	r11,r3,-1023
    5480:	10bfffc4 	addi	r2,r2,-1
    5484:	8084703a 	and	r2,r16,r2
    5488:	5900004c 	andi	r4,r11,1
    548c:	10c00434 	orhi	r3,r2,16
    5490:	20000426 	beq	r4,zero,54a4 <__ieee754_sqrt+0x60>
    5494:	4004d7fa 	srli	r2,r8,31
    5498:	18c7883a 	add	r3,r3,r3
    549c:	4211883a 	add	r8,r8,r8
    54a0:	10c7883a 	add	r3,r2,r3
    54a4:	4004d7fa 	srli	r2,r8,31
    54a8:	5817d07a 	srai	r11,r11,1
    54ac:	18c7883a 	add	r3,r3,r3
    54b0:	1887883a 	add	r3,r3,r2
    54b4:	4209883a 	add	r4,r8,r8
    54b8:	01c00584 	movi	r7,22
    54bc:	0019883a 	mov	r12,zero
    54c0:	000b883a 	mov	r5,zero
    54c4:	00800834 	movhi	r2,32
    54c8:	288d883a 	add	r6,r5,r2
    54cc:	2010d7fa 	srli	r8,r4,31
    54d0:	39ffffc4 	addi	r7,r7,-1
    54d4:	19800316 	blt	r3,r6,54e4 <__ieee754_sqrt+0xa0>
    54d8:	1987c83a 	sub	r3,r3,r6
    54dc:	308b883a 	add	r5,r6,r2
    54e0:	6099883a 	add	r12,r12,r2
    54e4:	18c7883a 	add	r3,r3,r3
    54e8:	1004d07a 	srli	r2,r2,1
    54ec:	40c7883a 	add	r3,r8,r3
    54f0:	2109883a 	add	r4,r4,r4
    54f4:	383ff41e 	bne	r7,zero,54c8 <__ieee754_sqrt+0x84>
    54f8:	0013883a 	mov	r9,zero
    54fc:	00800804 	movi	r2,32
    5500:	01a00034 	movhi	r6,32768
    5504:	00000806 	br	5528 <__ieee754_sqrt+0xe4>
    5508:	19403326 	beq	r3,r5,55d8 <__ieee754_sqrt+0x194>
    550c:	2010d7fa 	srli	r8,r4,31
    5510:	18c7883a 	add	r3,r3,r3
    5514:	10bfffc4 	addi	r2,r2,-1
